Archive member included because of file (symbol)

/usr/local/intel/lib/libbbhutil.a(bbhutil.o)
                              s_iter.o (sget_ivec_param)
/usr/local/intel/lib/libbbhutil.a(cliser.o)
                              instr.o (ser0_connect)
/usr/local/intel/lib/libbbhutil.a(sdf.o)
                              instr.o (gsfd_close)
/usr/local/intel/lib/libbbhutil.a(gpar.tab.o)
                              /usr/local/intel/lib/libbbhutil.a(bbhutil.o) (sget_param)
/usr/local/intel/lib/libbbhutil.a(lex.gpar.o)
                              /usr/local/intel/lib/libbbhutil.a(gpar.tab.o) (gparlex)
/usr/local/intel/lib/libutilio.a(ctoirang.o)
                              misc_f77/dc_clusterer.o (indlnb_)
/usr/local/intel/lib/libutilio.a(utilexplorer_c.o)
                              geod_int.o (fuzzeq)
/opt/intel/composer_xe_2013.3.163/compiler/lib/intel64/libimf.a(atan2.o)
                              /usr/lib64/libforms.so (atan2)
/opt/intel/composer_xe_2013.3.163/compiler/lib/intel64/libimf.a(atan_stub.o)
                              misc_f77/misc_f77.o (atan)
/opt/intel/composer_xe_2013.3.163/compiler/lib/intel64/libimf.a(cbrt_stub.o)
                              fncs.o (cbrt)
/opt/intel/composer_xe_2013.3.163/compiler/lib/intel64/libimf.a(ceilf_stub.o)
                              /usr/lib64/libforms.so (ceilf)
/opt/intel/composer_xe_2013.3.163/compiler/lib/intel64/libimf.a(ceil_stub.o)
                              /usr/lib64/libforms.so (ceil)
/opt/intel/composer_xe_2013.3.163/compiler/lib/intel64/libimf.a(cos_stub.o)
                              misc_f77/misc_f77.o (cos)
/opt/intel/composer_xe_2013.3.163/compiler/lib/intel64/libimf.a(exp2f_stub.o)
                              /usr/local/intel/lib/libbbhutil.a(bbhutil.o) (exp2f)
/opt/intel/composer_xe_2013.3.163/compiler/lib/intel64/libimf.a(exp_stub.o)
                              fncs.o (exp)
/opt/intel/composer_xe_2013.3.163/compiler/lib/intel64/libimf.a(floorf_stub.o)
                              /usr/lib64/libforms.so (floorf)
/opt/intel/composer_xe_2013.3.163/compiler/lib/intel64/libimf.a(floor_stub.o)
                              /usr/lib64/libforms.so (floor)
/opt/intel/composer_xe_2013.3.163/compiler/lib/intel64/libimf.a(f__powi4i4.o)
                              misc_f77/misc_f77.o (__powi4i4)
/opt/intel/composer_xe_2013.3.163/compiler/lib/intel64/libimf.a(isfinite.o)
                              reg.o (finite)
/opt/intel/composer_xe_2013.3.163/compiler/lib/intel64/libimf.a(libm_error.o)
                              /opt/intel/composer_xe_2013.3.163/compiler/lib/intel64/libimf.a(atan2.o) (__libm_error_support)
/opt/intel/composer_xe_2013.3.163/compiler/lib/intel64/libimf.a(libm_sse2_sincos.o)
                              misc_f77/misc_f77.o (__libm_sse2_sincos)
/opt/intel/composer_xe_2013.3.163/compiler/lib/intel64/libimf.a(log10f_stub.o)
                              /usr/lib64/libforms.so (log10f)
/opt/intel/composer_xe_2013.3.163/compiler/lib/intel64/libimf.a(log10_stub.o)
                              fncs.o (log10)
/opt/intel/composer_xe_2013.3.163/compiler/lib/intel64/libimf.a(log_stub.o)
                              fncs.o (log)
/opt/intel/composer_xe_2013.3.163/compiler/lib/intel64/libimf.a(matherrf.o)
                              /opt/intel/composer_xe_2013.3.163/compiler/lib/intel64/libimf.a(libm_error.o) (matherrf)
/opt/intel/composer_xe_2013.3.163/compiler/lib/intel64/libimf.a(matherrl.o)
                              /opt/intel/composer_xe_2013.3.163/compiler/lib/intel64/libimf.a(libm_error.o) (matherrl)
/opt/intel/composer_xe_2013.3.163/compiler/lib/intel64/libimf.a(matherr.o)
                              /opt/intel/composer_xe_2013.3.163/compiler/lib/intel64/libimf.a(libm_error.o) (matherr)
/opt/intel/composer_xe_2013.3.163/compiler/lib/intel64/libimf.a(pow_stub.o)
                              misc_f77/misc_f77.o (pow)
/opt/intel/composer_xe_2013.3.163/compiler/lib/intel64/libimf.a(sincosf_stub.o)
                              /usr/lib64/libforms.so (sincosf)
/opt/intel/composer_xe_2013.3.163/compiler/lib/intel64/libimf.a(sincos_stub.o)
                              /usr/lib64/libforms.so (sincos)
/opt/intel/composer_xe_2013.3.163/compiler/lib/intel64/libimf.a(sin_stub.o)
                              misc_f77/misc_f77.o (sin)
/opt/intel/composer_xe_2013.3.163/compiler/lib/intel64/libimf.a(tan_stub.o)
                              fncs.o (tan)
/opt/intel/composer_xe_2013.3.163/compiler/lib/intel64/libimf.a(atan_ct.o)
                              /opt/intel/composer_xe_2013.3.163/compiler/lib/intel64/libimf.a(atan_stub.o) (atan.L)
/opt/intel/composer_xe_2013.3.163/compiler/lib/intel64/libimf.a(atan_gen.o)
                              /opt/intel/composer_xe_2013.3.163/compiler/lib/intel64/libimf.a(atan_stub.o) (atan.A)
/opt/intel/composer_xe_2013.3.163/compiler/lib/intel64/libimf.a(cbrt_ct.o)
                              /opt/intel/composer_xe_2013.3.163/compiler/lib/intel64/libimf.a(cbrt_stub.o) (cbrt.L)
/opt/intel/composer_xe_2013.3.163/compiler/lib/intel64/libimf.a(cbrt_gen.o)
                              /opt/intel/composer_xe_2013.3.163/compiler/lib/intel64/libimf.a(cbrt_stub.o) (cbrt.A)
/opt/intel/composer_xe_2013.3.163/compiler/lib/intel64/libimf.a(ceil_ct.o)
                              /opt/intel/composer_xe_2013.3.163/compiler/lib/intel64/libimf.a(ceil_stub.o) (ceil.L)
/opt/intel/composer_xe_2013.3.163/compiler/lib/intel64/libimf.a(ceilf_ct.o)
                              /opt/intel/composer_xe_2013.3.163/compiler/lib/intel64/libimf.a(ceilf_stub.o) (ceilf.L)
/opt/intel/composer_xe_2013.3.163/compiler/lib/intel64/libimf.a(ceilf_gen.o)
                              /opt/intel/composer_xe_2013.3.163/compiler/lib/intel64/libimf.a(ceilf_stub.o) (ceilf.A)
/opt/intel/composer_xe_2013.3.163/compiler/lib/intel64/libimf.a(ceilf_pnr.o)
                              /opt/intel/composer_xe_2013.3.163/compiler/lib/intel64/libimf.a(ceilf_stub.o) (ceilf.N)
/opt/intel/composer_xe_2013.3.163/compiler/lib/intel64/libimf.a(ceil_gen.o)
                              /opt/intel/composer_xe_2013.3.163/compiler/lib/intel64/libimf.a(ceil_stub.o) (ceil.A)
/opt/intel/composer_xe_2013.3.163/compiler/lib/intel64/libimf.a(ceil_pnr.o)
                              /opt/intel/composer_xe_2013.3.163/compiler/lib/intel64/libimf.a(ceil_stub.o) (ceil.N)
/opt/intel/composer_xe_2013.3.163/compiler/lib/intel64/libimf.a(cos_ct.o)
                              /opt/intel/composer_xe_2013.3.163/compiler/lib/intel64/libimf.a(cos_stub.o) (cos.L)
/opt/intel/composer_xe_2013.3.163/compiler/lib/intel64/libimf.a(cos_gen.o)
                              /opt/intel/composer_xe_2013.3.163/compiler/lib/intel64/libimf.a(cos_stub.o) (cos.A)
/opt/intel/composer_xe_2013.3.163/compiler/lib/intel64/libimf.a(cos_pnr.o)
                              /opt/intel/composer_xe_2013.3.163/compiler/lib/intel64/libimf.a(cos_stub.o) (cos.N)
/opt/intel/composer_xe_2013.3.163/compiler/lib/intel64/libimf.a(exp2f_ct.o)
                              /opt/intel/composer_xe_2013.3.163/compiler/lib/intel64/libimf.a(exp2f_stub.o) (exp2f.L)
/opt/intel/composer_xe_2013.3.163/compiler/lib/intel64/libimf.a(exp2f_gen.o)
                              /opt/intel/composer_xe_2013.3.163/compiler/lib/intel64/libimf.a(exp2f_stub.o) (exp2f.A)
/opt/intel/composer_xe_2013.3.163/compiler/lib/intel64/libimf.a(exp_ct.o)
                              /opt/intel/composer_xe_2013.3.163/compiler/lib/intel64/libimf.a(exp_stub.o) (exp.L)
/opt/intel/composer_xe_2013.3.163/compiler/lib/intel64/libimf.a(expf_table.o)
                              /opt/intel/composer_xe_2013.3.163/compiler/lib/intel64/libimf.a(exp2f_gen.o) (__libm_expf_table_64)
/opt/intel/composer_xe_2013.3.163/compiler/lib/intel64/libimf.a(exp_gen.o)
                              /opt/intel/composer_xe_2013.3.163/compiler/lib/intel64/libimf.a(exp_stub.o) (exp.A)
/opt/intel/composer_xe_2013.3.163/compiler/lib/intel64/libimf.a(floor_ct.o)
                              /opt/intel/composer_xe_2013.3.163/compiler/lib/intel64/libimf.a(floor_stub.o) (floor.L)
/opt/intel/composer_xe_2013.3.163/compiler/lib/intel64/libimf.a(floorf_ct.o)
                              /opt/intel/composer_xe_2013.3.163/compiler/lib/intel64/libimf.a(floorf_stub.o) (floorf.L)
/opt/intel/composer_xe_2013.3.163/compiler/lib/intel64/libimf.a(floorf_gen.o)
                              /opt/intel/composer_xe_2013.3.163/compiler/lib/intel64/libimf.a(floorf_stub.o) (floorf.A)
/opt/intel/composer_xe_2013.3.163/compiler/lib/intel64/libimf.a(floorf_pnr.o)
                              /opt/intel/composer_xe_2013.3.163/compiler/lib/intel64/libimf.a(floorf_stub.o) (floorf.N)
/opt/intel/composer_xe_2013.3.163/compiler/lib/intel64/libimf.a(floor_gen.o)
                              /opt/intel/composer_xe_2013.3.163/compiler/lib/intel64/libimf.a(floor_stub.o) (floor.A)
/opt/intel/composer_xe_2013.3.163/compiler/lib/intel64/libimf.a(floor_pnr.o)
                              /opt/intel/composer_xe_2013.3.163/compiler/lib/intel64/libimf.a(floor_stub.o) (floor.N)
/opt/intel/composer_xe_2013.3.163/compiler/lib/intel64/libimf.a(libm_reduce_pio2.o)
                              /opt/intel/composer_xe_2013.3.163/compiler/lib/intel64/libimf.a(libm_sse2_sincos.o) (__libm_reduce_pio2d)
/opt/intel/composer_xe_2013.3.163/compiler/lib/intel64/libimf.a(log10_ct.o)
                              /opt/intel/composer_xe_2013.3.163/compiler/lib/intel64/libimf.a(log10_stub.o) (log10.L)
/opt/intel/composer_xe_2013.3.163/compiler/lib/intel64/libimf.a(log10f_ct.o)
                              /opt/intel/composer_xe_2013.3.163/compiler/lib/intel64/libimf.a(log10f_stub.o) (log10f.L)
/opt/intel/composer_xe_2013.3.163/compiler/lib/intel64/libimf.a(log10f_gen.o)
                              /opt/intel/composer_xe_2013.3.163/compiler/lib/intel64/libimf.a(log10f_stub.o) (log10f.A)
/opt/intel/composer_xe_2013.3.163/compiler/lib/intel64/libimf.a(log10_gen.o)
                              /opt/intel/composer_xe_2013.3.163/compiler/lib/intel64/libimf.a(log10_stub.o) (log10.A)
/opt/intel/composer_xe_2013.3.163/compiler/lib/intel64/libimf.a(log_ct.o)
                              /opt/intel/composer_xe_2013.3.163/compiler/lib/intel64/libimf.a(log_stub.o) (log.L)
/opt/intel/composer_xe_2013.3.163/compiler/lib/intel64/libimf.a(logf_table.o)
                              /opt/intel/composer_xe_2013.3.163/compiler/lib/intel64/libimf.a(log10f_gen.o) (__libm_logf_table_256)
/opt/intel/composer_xe_2013.3.163/compiler/lib/intel64/libimf.a(log_gen.o)
                              /opt/intel/composer_xe_2013.3.163/compiler/lib/intel64/libimf.a(log_stub.o) (log.A)
/opt/intel/composer_xe_2013.3.163/compiler/lib/intel64/libimf.a(pow_ct.o)
                              /opt/intel/composer_xe_2013.3.163/compiler/lib/intel64/libimf.a(pow_stub.o) (pow.L)
/opt/intel/composer_xe_2013.3.163/compiler/lib/intel64/libimf.a(pow_gen.o)
                              /opt/intel/composer_xe_2013.3.163/compiler/lib/intel64/libimf.a(pow_stub.o) (pow.A)
/opt/intel/composer_xe_2013.3.163/compiler/lib/intel64/libimf.a(rcp_table.o)
                              /opt/intel/composer_xe_2013.3.163/compiler/lib/intel64/libimf.a(log10f_gen.o) (__libm_rcp_table_256)
/opt/intel/composer_xe_2013.3.163/compiler/lib/intel64/libimf.a(sincos_ct.o)
                              /opt/intel/composer_xe_2013.3.163/compiler/lib/intel64/libimf.a(sincos_stub.o) (sincos.L)
/opt/intel/composer_xe_2013.3.163/compiler/lib/intel64/libimf.a(sincosf_ct.o)
                              /opt/intel/composer_xe_2013.3.163/compiler/lib/intel64/libimf.a(sincosf_stub.o) (sincosf.L)
/opt/intel/composer_xe_2013.3.163/compiler/lib/intel64/libimf.a(sincosf_gen.o)
                              /opt/intel/composer_xe_2013.3.163/compiler/lib/intel64/libimf.a(sincosf_stub.o) (sincosf.A)
/opt/intel/composer_xe_2013.3.163/compiler/lib/intel64/libimf.a(sincos_gen.o)
                              /opt/intel/composer_xe_2013.3.163/compiler/lib/intel64/libimf.a(sincos_stub.o) (sincos.A)
/opt/intel/composer_xe_2013.3.163/compiler/lib/intel64/libimf.a(sin_ct.o)
                              /opt/intel/composer_xe_2013.3.163/compiler/lib/intel64/libimf.a(sin_stub.o) (sin.L)
/opt/intel/composer_xe_2013.3.163/compiler/lib/intel64/libimf.a(sin_gen.o)
                              /opt/intel/composer_xe_2013.3.163/compiler/lib/intel64/libimf.a(sin_stub.o) (sin.A)
/opt/intel/composer_xe_2013.3.163/compiler/lib/intel64/libimf.a(sin_pnr.o)
                              /opt/intel/composer_xe_2013.3.163/compiler/lib/intel64/libimf.a(sin_stub.o) (sin.N)
/opt/intel/composer_xe_2013.3.163/compiler/lib/intel64/libimf.a(tan_ct.o)
                              /opt/intel/composer_xe_2013.3.163/compiler/lib/intel64/libimf.a(tan_stub.o) (tan.L)
/opt/intel/composer_xe_2013.3.163/compiler/lib/intel64/libimf.a(tan_gen.o)
                              /opt/intel/composer_xe_2013.3.163/compiler/lib/intel64/libimf.a(tan_stub.o) (tan.A)
/d/bh0/home/matt/autoconf/DV/DVCliser//libDVCliser.a(DVCliser.o)
                              DV.o (ser0_start_DV)
/opt/intel/composer_xe_2013.3.163/compiler/lib/intel64/libimf.a(acosdf.o)
                              /opt/intel/composer_xe_2013.3.163/compiler/lib/intel64/libifcore.so.5 (acosdf)
/opt/intel/composer_xe_2013.3.163/compiler/lib/intel64/libimf.a(acosdq_stub.o)
                              /opt/intel/composer_xe_2013.3.163/compiler/lib/intel64/libifcore.so.5 (__acosdq)
/opt/intel/composer_xe_2013.3.163/compiler/lib/intel64/libimf.a(acosd_stub.o)
                              /opt/intel/composer_xe_2013.3.163/compiler/lib/intel64/libifcore.so.5 (acosd)
/opt/intel/composer_xe_2013.3.163/compiler/lib/intel64/libimf.a(acoshq_stub.o)
                              /opt/intel/composer_xe_2013.3.163/compiler/lib/intel64/libifcore.so.5 (__acoshq)
/opt/intel/composer_xe_2013.3.163/compiler/lib/intel64/libimf.a(acosq_stub.o)
                              /opt/intel/composer_xe_2013.3.163/compiler/lib/intel64/libifcore.so.5 (__acosq)
/opt/intel/composer_xe_2013.3.163/compiler/lib/intel64/libimf.a(asindf.o)
                              /opt/intel/composer_xe_2013.3.163/compiler/lib/intel64/libifcore.so.5 (asindf)
/opt/intel/composer_xe_2013.3.163/compiler/lib/intel64/libimf.a(asindq_stub.o)
                              /opt/intel/composer_xe_2013.3.163/compiler/lib/intel64/libifcore.so.5 (__asindq)
/opt/intel/composer_xe_2013.3.163/compiler/lib/intel64/libimf.a(asind_stub.o)
                              /opt/intel/composer_xe_2013.3.163/compiler/lib/intel64/libifcore.so.5 (asind)
/opt/intel/composer_xe_2013.3.163/compiler/lib/intel64/libimf.a(asinhq_stub.o)
                              /opt/intel/composer_xe_2013.3.163/compiler/lib/intel64/libifcore.so.5 (__asinhq)
/opt/intel/composer_xe_2013.3.163/compiler/lib/intel64/libimf.a(asinq_stub.o)
                              /opt/intel/composer_xe_2013.3.163/compiler/lib/intel64/libifcore.so.5 (__asinq)
/opt/intel/composer_xe_2013.3.163/compiler/lib/intel64/libimf.a(atan2dq_stub.o)
                              /opt/intel/composer_xe_2013.3.163/compiler/lib/intel64/libifcore.so.5 (__atand2q)
/opt/intel/composer_xe_2013.3.163/compiler/lib/intel64/libimf.a(atan2q_stub.o)
                              /opt/intel/composer_xe_2013.3.163/compiler/lib/intel64/libifcore.so.5 (__atan2q)
/opt/intel/composer_xe_2013.3.163/compiler/lib/intel64/libimf.a(atandf.o)
                              /opt/intel/composer_xe_2013.3.163/compiler/lib/intel64/libifcore.so.5 (atandf)
/opt/intel/composer_xe_2013.3.163/compiler/lib/intel64/libimf.a(atand.o)
                              /opt/intel/composer_xe_2013.3.163/compiler/lib/intel64/libifcore.so.5 (atand)
/opt/intel/composer_xe_2013.3.163/compiler/lib/intel64/libimf.a(atandq_stub.o)
                              /opt/intel/composer_xe_2013.3.163/compiler/lib/intel64/libifcore.so.5 (__atandq)
/opt/intel/composer_xe_2013.3.163/compiler/lib/intel64/libimf.a(atanhq_stub.o)
                              /opt/intel/composer_xe_2013.3.163/compiler/lib/intel64/libifcore.so.5 (__atanhq)
/opt/intel/composer_xe_2013.3.163/compiler/lib/intel64/libimf.a(atanq_stub.o)
                              /opt/intel/composer_xe_2013.3.163/compiler/lib/intel64/libifcore.so.5 (__atanq)
/opt/intel/composer_xe_2013.3.163/compiler/lib/intel64/libimf.a(cabsq.o)
                              /opt/intel/composer_xe_2013.3.163/compiler/lib/intel64/libifcore.so.5 (__cabsq)
/opt/intel/composer_xe_2013.3.163/compiler/lib/intel64/libimf.a(cbrtq_stub.o)
                              /opt/intel/composer_xe_2013.3.163/compiler/lib/intel64/libifcore.so.5 (__cbrtq)
/opt/intel/composer_xe_2013.3.163/compiler/lib/intel64/libimf.a(ccoshq.o)
                              /opt/intel/composer_xe_2013.3.163/compiler/lib/intel64/libifcore.so.5 (__ccoshq)
/opt/intel/composer_xe_2013.3.163/compiler/lib/intel64/libimf.a(ccosq.o)
                              /opt/intel/composer_xe_2013.3.163/compiler/lib/intel64/libifcore.so.5 (__ccosq)
/opt/intel/composer_xe_2013.3.163/compiler/lib/intel64/libimf.a(ceilq.o)
                              /opt/intel/composer_xe_2013.3.163/compiler/lib/intel64/libifcore.so.5 (__ceilq)
/opt/intel/composer_xe_2013.3.163/compiler/lib/intel64/libimf.a(cexp10f.o)
                              /opt/intel/composer_xe_2013.3.163/compiler/lib/intel64/libifcore.so.5 (cexp10f)
/opt/intel/composer_xe_2013.3.163/compiler/lib/intel64/libimf.a(cexp10.o)
                              /opt/intel/composer_xe_2013.3.163/compiler/lib/intel64/libifcore.so.5 (cexp10)
/opt/intel/composer_xe_2013.3.163/compiler/lib/intel64/libimf.a(cexp10q.o)
                              /opt/intel/composer_xe_2013.3.163/compiler/lib/intel64/libifcore.so.5 (__cexp10q)
/opt/intel/composer_xe_2013.3.163/compiler/lib/intel64/libimf.a(cexpq.o)
                              /opt/intel/composer_xe_2013.3.163/compiler/lib/intel64/libifcore.so.5 (__cexpq)
/opt/intel/composer_xe_2013.3.163/compiler/lib/intel64/libimf.a(clog10q.o)
                              /opt/intel/composer_xe_2013.3.163/compiler/lib/intel64/libifcore.so.5 (__clog10q)
/opt/intel/composer_xe_2013.3.163/compiler/lib/intel64/libimf.a(clogq.o)
                              /opt/intel/composer_xe_2013.3.163/compiler/lib/intel64/libifcore.so.5 (__clogq)
/opt/intel/composer_xe_2013.3.163/compiler/lib/intel64/libimf.a(const_q_table.o)
                              /opt/intel/composer_xe_2013.3.163/compiler/lib/intel64/libimf.a(ceilq.o) (__libm128_const_q_table)
/opt/intel/composer_xe_2013.3.163/compiler/lib/intel64/libimf.a(cosdf_stub.o)
                              /opt/intel/composer_xe_2013.3.163/compiler/lib/intel64/libifcore.so.5 (cosdf)
/opt/intel/composer_xe_2013.3.163/compiler/lib/intel64/libimf.a(cosdq_stub.o)
                              /opt/intel/composer_xe_2013.3.163/compiler/lib/intel64/libifcore.so.5 (__cosdq)
/opt/intel/composer_xe_2013.3.163/compiler/lib/intel64/libimf.a(cosd_stub.o)
                              /opt/intel/composer_xe_2013.3.163/compiler/lib/intel64/libifcore.so.5 (cosd)
/opt/intel/composer_xe_2013.3.163/compiler/lib/intel64/libimf.a(coshq_stub.o)
                              /opt/intel/composer_xe_2013.3.163/compiler/lib/intel64/libifcore.so.5 (__coshq)
/opt/intel/composer_xe_2013.3.163/compiler/lib/intel64/libimf.a(cosq_stub.o)
                              /opt/intel/composer_xe_2013.3.163/compiler/lib/intel64/libifcore.so.5 (__cosq)
/opt/intel/composer_xe_2013.3.163/compiler/lib/intel64/libimf.a(cotdf_stub.o)
                              /opt/intel/composer_xe_2013.3.163/compiler/lib/intel64/libifcore.so.5 (cotdf)
/opt/intel/composer_xe_2013.3.163/compiler/lib/intel64/libimf.a(cotdq_stub.o)
                              /opt/intel/composer_xe_2013.3.163/compiler/lib/intel64/libifcore.so.5 (__cotdq)
/opt/intel/composer_xe_2013.3.163/compiler/lib/intel64/libimf.a(cotd_stub.o)
                              /opt/intel/composer_xe_2013.3.163/compiler/lib/intel64/libifcore.so.5 (cotd)
/opt/intel/composer_xe_2013.3.163/compiler/lib/intel64/libimf.a(cotf.o)
                              /opt/intel/composer_xe_2013.3.163/compiler/lib/intel64/libifcore.so.5 (cotf)
/opt/intel/composer_xe_2013.3.163/compiler/lib/intel64/libimf.a(cot.o)
                              /opt/intel/composer_xe_2013.3.163/compiler/lib/intel64/libifcore.so.5 (cot)
/opt/intel/composer_xe_2013.3.163/compiler/lib/intel64/libimf.a(cotq_stub.o)
                              /opt/intel/composer_xe_2013.3.163/compiler/lib/intel64/libifcore.so.5 (__cotq)
/opt/intel/composer_xe_2013.3.163/compiler/lib/intel64/libimf.a(cpowq.o)
                              /opt/intel/composer_xe_2013.3.163/compiler/lib/intel64/libifcore.so.5 (__cpowq)
/opt/intel/composer_xe_2013.3.163/compiler/lib/intel64/libimf.a(csinhq.o)
                              /opt/intel/composer_xe_2013.3.163/compiler/lib/intel64/libifcore.so.5 (__csinhq)
/opt/intel/composer_xe_2013.3.163/compiler/lib/intel64/libimf.a(csinq.o)
                              /opt/intel/composer_xe_2013.3.163/compiler/lib/intel64/libifcore.so.5 (__csinq)
/opt/intel/composer_xe_2013.3.163/compiler/lib/intel64/libimf.a(csqrtq.o)
                              /opt/intel/composer_xe_2013.3.163/compiler/lib/intel64/libifcore.so.5 (__csqrtq)
/opt/intel/composer_xe_2013.3.163/compiler/lib/intel64/libimf.a(ctanhq.o)
                              /opt/intel/composer_xe_2013.3.163/compiler/lib/intel64/libifcore.so.5 (__ctanhq)
/opt/intel/composer_xe_2013.3.163/compiler/lib/intel64/libimf.a(ctanq.o)
                              /opt/intel/composer_xe_2013.3.163/compiler/lib/intel64/libifcore.so.5 (__ctanq)
/opt/intel/composer_xe_2013.3.163/compiler/lib/intel64/libimf.a(dpml_ux_bessel.o)
                              /opt/intel/composer_xe_2013.3.163/compiler/lib/intel64/libifcore.so.5 (__j0q)
/opt/intel/composer_xe_2013.3.163/compiler/lib/intel64/libimf.a(dpml_ux_erf.o)
                              /opt/intel/composer_xe_2013.3.163/compiler/lib/intel64/libifcore.so.5 (__erfq)
/opt/intel/composer_xe_2013.3.163/compiler/lib/intel64/libimf.a(dpml_ux_exp.o)
                              /opt/intel/composer_xe_2013.3.163/compiler/lib/intel64/libimf.a(dpml_ux_erf.o) (__dpml_ux_exp__)
/opt/intel/composer_xe_2013.3.163/compiler/lib/intel64/libimf.a(dpml_ux_int.o)
                              /opt/intel/composer_xe_2013.3.163/compiler/lib/intel64/libifcore.so.5 (__nintq)
/opt/intel/composer_xe_2013.3.163/compiler/lib/intel64/libimf.a(dpml_ux_lgamma.o)
                              /opt/intel/composer_xe_2013.3.163/compiler/lib/intel64/libifcore.so.5 (__gammaq)
/opt/intel/composer_xe_2013.3.163/compiler/lib/intel64/libimf.a(dpml_ux_log.o)
                              /opt/intel/composer_xe_2013.3.163/compiler/lib/intel64/libimf.a(dpml_ux_bessel.o) (__dpml_ux_log__)
/opt/intel/composer_xe_2013.3.163/compiler/lib/intel64/libimf.a(dpml_ux_mod.o)
                              /opt/intel/composer_xe_2013.3.163/compiler/lib/intel64/libifcore.so.5 (__fmodq)
/opt/intel/composer_xe_2013.3.163/compiler/lib/intel64/libimf.a(dpml_ux_ops_64.o)
                              /opt/intel/composer_xe_2013.3.163/compiler/lib/intel64/libimf.a(dpml_ux_erf.o) (__dpml_extended_multiply__)
/opt/intel/composer_xe_2013.3.163/compiler/lib/intel64/libimf.a(dpml_ux_ops.o)
                              /opt/intel/composer_xe_2013.3.163/compiler/lib/intel64/libimf.a(dpml_ux_mod.o) (__dpml_unpack2__)
/opt/intel/composer_xe_2013.3.163/compiler/lib/intel64/libimf.a(dpml_ux_powi.o)
                              /opt/intel/composer_xe_2013.3.163/compiler/lib/intel64/libifcore.so.5 (__powiq)
/opt/intel/composer_xe_2013.3.163/compiler/lib/intel64/libimf.a(dpml_ux_sqrt.o)
                              /opt/intel/composer_xe_2013.3.163/compiler/lib/intel64/libimf.a(dpml_ux_bessel.o) (__dpml_ux_sqrt_evaluation__)
/opt/intel/composer_xe_2013.3.163/compiler/lib/intel64/libimf.a(dpml_ux_trig.o)
                              /opt/intel/composer_xe_2013.3.163/compiler/lib/intel64/libimf.a(dpml_ux_bessel.o) (__dpml_ux_sincos)
/opt/intel/composer_xe_2013.3.163/compiler/lib/intel64/libimf.a(exp10q_stub.o)
                              /opt/intel/composer_xe_2013.3.163/compiler/lib/intel64/libifcore.so.5 (__exp10q)
/opt/intel/composer_xe_2013.3.163/compiler/lib/intel64/libimf.a(exp2q_stub.o)
                              /opt/intel/composer_xe_2013.3.163/compiler/lib/intel64/libifcore.so.5 (__exp2q)
/opt/intel/composer_xe_2013.3.163/compiler/lib/intel64/libimf.a(expq_stub.o)
                              /opt/intel/composer_xe_2013.3.163/compiler/lib/intel64/libifcore.so.5 (__expq)
/opt/intel/composer_xe_2013.3.163/compiler/lib/intel64/libimf.a(fabsq.o)
                              /opt/intel/composer_xe_2013.3.163/compiler/lib/intel64/libifcore.so.5 (__fabsq)
/opt/intel/composer_xe_2013.3.163/compiler/lib/intel64/libimf.a(floorq.o)
                              /opt/intel/composer_xe_2013.3.163/compiler/lib/intel64/libifcore.so.5 (__floorq)
/opt/intel/composer_xe_2013.3.163/compiler/lib/intel64/libimf.a(frexpq.o)
                              /opt/intel/composer_xe_2013.3.163/compiler/lib/intel64/libifcore.so.5 (__frexpq)
/opt/intel/composer_xe_2013.3.163/compiler/lib/intel64/libimf.a(hypotq_stub.o)
                              /opt/intel/composer_xe_2013.3.163/compiler/lib/intel64/libimf.a(cabsq.o) (__hypotq)
/opt/intel/composer_xe_2013.3.163/compiler/lib/intel64/libimf.a(intel_quad_exception.o)
                              /opt/intel/composer_xe_2013.3.163/compiler/lib/intel64/libimf.a(dpml_ux_ops.o) (__dpml_exception)
/opt/intel/composer_xe_2013.3.163/compiler/lib/intel64/libimf.a(ldexpq.o)
                              /opt/intel/composer_xe_2013.3.163/compiler/lib/intel64/libifcore.so.5 (__ldexpq)
/opt/intel/composer_xe_2013.3.163/compiler/lib/intel64/libimf.a(libm128_error.o)
                              /opt/intel/composer_xe_2013.3.163/compiler/lib/intel64/libimf.a(ldexpq.o) (__libm128_error_support)
/opt/intel/composer_xe_2013.3.163/compiler/lib/intel64/libimf.a(libm_exp10_k64.o)
                              /opt/intel/composer_xe_2013.3.163/compiler/lib/intel64/libimf.a(cexp10.o) (__libm_exp10_k64)
/opt/intel/composer_xe_2013.3.163/compiler/lib/intel64/libimf.a(libm_mul_k64.o)
                              /opt/intel/composer_xe_2013.3.163/compiler/lib/intel64/libimf.a(cexp10.o) (__libm_mul_k64)
/opt/intel/composer_xe_2013.3.163/compiler/lib/intel64/libimf.a(libm_sincosln10_k64.o)
                              /opt/intel/composer_xe_2013.3.163/compiler/lib/intel64/libimf.a(cexp10.o) (__libm_sincosln10_k64)
/opt/intel/composer_xe_2013.3.163/compiler/lib/intel64/libimf.a(log10q_stub.o)
                              /opt/intel/composer_xe_2013.3.163/compiler/lib/intel64/libifcore.so.5 (__log10q)
/opt/intel/composer_xe_2013.3.163/compiler/lib/intel64/libimf.a(log2q_stub.o)
                              /opt/intel/composer_xe_2013.3.163/compiler/lib/intel64/libifcore.so.5 (__log2q)
/opt/intel/composer_xe_2013.3.163/compiler/lib/intel64/libimf.a(logq_stub.o)
                              /opt/intel/composer_xe_2013.3.163/compiler/lib/intel64/libifcore.so.5 (__logq)
/opt/intel/composer_xe_2013.3.163/compiler/lib/intel64/libimf.a(nextafterq.o)
                              /opt/intel/composer_xe_2013.3.163/compiler/lib/intel64/libifcore.so.5 (__nextafterq)
/opt/intel/composer_xe_2013.3.163/compiler/lib/intel64/libimf.a(powq_stub.o)
                              /opt/intel/composer_xe_2013.3.163/compiler/lib/intel64/libifcore.so.5 (__powq)
/opt/intel/composer_xe_2013.3.163/compiler/lib/intel64/libimf.a(rintq.o)
                              /opt/intel/composer_xe_2013.3.163/compiler/lib/intel64/libifcore.so.5 (__rintq)
/opt/intel/composer_xe_2013.3.163/compiler/lib/intel64/libimf.a(scalbnq.o)
                              /opt/intel/composer_xe_2013.3.163/compiler/lib/intel64/libifcore.so.5 (__scalbnq)
/opt/intel/composer_xe_2013.3.163/compiler/lib/intel64/libimf.a(sindf_stub.o)
                              /opt/intel/composer_xe_2013.3.163/compiler/lib/intel64/libifcore.so.5 (sindf)
/opt/intel/composer_xe_2013.3.163/compiler/lib/intel64/libimf.a(sindq_stub.o)
                              /opt/intel/composer_xe_2013.3.163/compiler/lib/intel64/libifcore.so.5 (__sindq)
/opt/intel/composer_xe_2013.3.163/compiler/lib/intel64/libimf.a(sind_stub.o)
                              /opt/intel/composer_xe_2013.3.163/compiler/lib/intel64/libifcore.so.5 (sind)
/opt/intel/composer_xe_2013.3.163/compiler/lib/intel64/libimf.a(sinhq_stub.o)
                              /opt/intel/composer_xe_2013.3.163/compiler/lib/intel64/libifcore.so.5 (__sinhq)
/opt/intel/composer_xe_2013.3.163/compiler/lib/intel64/libimf.a(sinq_stub.o)
                              /opt/intel/composer_xe_2013.3.163/compiler/lib/intel64/libifcore.so.5 (__sinq)
/opt/intel/composer_xe_2013.3.163/compiler/lib/intel64/libimf.a(sqrt_tab_t.o)
                              /opt/intel/composer_xe_2013.3.163/compiler/lib/intel64/libimf.a(dpml_ux_sqrt.o) (__sqrt_t_table)
/opt/intel/composer_xe_2013.3.163/compiler/lib/intel64/libimf.a(tandf_stub.o)
                              /opt/intel/composer_xe_2013.3.163/compiler/lib/intel64/libifcore.so.5 (tandf)
/opt/intel/composer_xe_2013.3.163/compiler/lib/intel64/libimf.a(tandq_stub.o)
                              /opt/intel/composer_xe_2013.3.163/compiler/lib/intel64/libifcore.so.5 (__tandq)
/opt/intel/composer_xe_2013.3.163/compiler/lib/intel64/libimf.a(tand_stub.o)
                              /opt/intel/composer_xe_2013.3.163/compiler/lib/intel64/libifcore.so.5 (tand)
/opt/intel/composer_xe_2013.3.163/compiler/lib/intel64/libimf.a(tanhq_stub.o)
                              /opt/intel/composer_xe_2013.3.163/compiler/lib/intel64/libifcore.so.5 (__tanhq)
/opt/intel/composer_xe_2013.3.163/compiler/lib/intel64/libimf.a(tanq_stub.o)
                              /opt/intel/composer_xe_2013.3.163/compiler/lib/intel64/libifcore.so.5 (__tanq)
/opt/intel/composer_xe_2013.3.163/compiler/lib/intel64/libimf.a(trig_pi_bits.o)
                              /opt/intel/composer_xe_2013.3.163/compiler/lib/intel64/libimf.a(dpml_ux_trig.o) (__four_over_pi)
/opt/intel/composer_xe_2013.3.163/compiler/lib/intel64/libimf.a(truncq.o)
                              /opt/intel/composer_xe_2013.3.163/compiler/lib/intel64/libifcore.so.5 (__truncq)
/opt/intel/composer_xe_2013.3.163/compiler/lib/intel64/libimf.a(acosd_ct.o)
                              /opt/intel/composer_xe_2013.3.163/compiler/lib/intel64/libimf.a(acosd_stub.o) (acosd.L)
/opt/intel/composer_xe_2013.3.163/compiler/lib/intel64/libimf.a(acosd_gen.o)
                              /opt/intel/composer_xe_2013.3.163/compiler/lib/intel64/libimf.a(acosd_stub.o) (acosd.A)
/opt/intel/composer_xe_2013.3.163/compiler/lib/intel64/libimf.a(acosdq_ct.o)
                              /opt/intel/composer_xe_2013.3.163/compiler/lib/intel64/libimf.a(acosdq_stub.o) (__acosdq.L)
/opt/intel/composer_xe_2013.3.163/compiler/lib/intel64/libimf.a(acosdq_gen.o)
                              /opt/intel/composer_xe_2013.3.163/compiler/lib/intel64/libimf.a(acosdq_stub.o) (__acosdq.A)
/opt/intel/composer_xe_2013.3.163/compiler/lib/intel64/libimf.a(acoshq_ct.o)
                              /opt/intel/composer_xe_2013.3.163/compiler/lib/intel64/libimf.a(acoshq_stub.o) (__acoshq.L)
/opt/intel/composer_xe_2013.3.163/compiler/lib/intel64/libimf.a(acoshq_gen.o)
                              /opt/intel/composer_xe_2013.3.163/compiler/lib/intel64/libimf.a(acoshq_stub.o) (__acoshq.A)
/opt/intel/composer_xe_2013.3.163/compiler/lib/intel64/libimf.a(acosq_ct.o)
                              /opt/intel/composer_xe_2013.3.163/compiler/lib/intel64/libimf.a(acosq_stub.o) (__acosq.L)
/opt/intel/composer_xe_2013.3.163/compiler/lib/intel64/libimf.a(acosq_gen.o)
                              /opt/intel/composer_xe_2013.3.163/compiler/lib/intel64/libimf.a(acosq_stub.o) (__acosq.A)
/opt/intel/composer_xe_2013.3.163/compiler/lib/intel64/libimf.a(asind_ct.o)
                              /opt/intel/composer_xe_2013.3.163/compiler/lib/intel64/libimf.a(asind_stub.o) (asind.L)
/opt/intel/composer_xe_2013.3.163/compiler/lib/intel64/libimf.a(asind_gen.o)
                              /opt/intel/composer_xe_2013.3.163/compiler/lib/intel64/libimf.a(asind_stub.o) (asind.A)
/opt/intel/composer_xe_2013.3.163/compiler/lib/intel64/libimf.a(asindq_ct.o)
                              /opt/intel/composer_xe_2013.3.163/compiler/lib/intel64/libimf.a(asindq_stub.o) (__asindq.L)
/opt/intel/composer_xe_2013.3.163/compiler/lib/intel64/libimf.a(asindq_gen.o)
                              /opt/intel/composer_xe_2013.3.163/compiler/lib/intel64/libimf.a(asindq_stub.o) (__asindq.A)
/opt/intel/composer_xe_2013.3.163/compiler/lib/intel64/libimf.a(asinhq_ct.o)
                              /opt/intel/composer_xe_2013.3.163/compiler/lib/intel64/libimf.a(asinhq_stub.o) (__asinhq.L)
/opt/intel/composer_xe_2013.3.163/compiler/lib/intel64/libimf.a(asinhq_gen.o)
                              /opt/intel/composer_xe_2013.3.163/compiler/lib/intel64/libimf.a(asinhq_stub.o) (__asinhq.A)
/opt/intel/composer_xe_2013.3.163/compiler/lib/intel64/libimf.a(asinq_ct.o)
                              /opt/intel/composer_xe_2013.3.163/compiler/lib/intel64/libimf.a(asinq_stub.o) (__asinq.L)
/opt/intel/composer_xe_2013.3.163/compiler/lib/intel64/libimf.a(asinq_gen.o)
                              /opt/intel/composer_xe_2013.3.163/compiler/lib/intel64/libimf.a(asinq_stub.o) (__asinq.A)
/opt/intel/composer_xe_2013.3.163/compiler/lib/intel64/libimf.a(atan2dq_ct.o)
                              /opt/intel/composer_xe_2013.3.163/compiler/lib/intel64/libimf.a(atan2dq_stub.o) (__atan2dq.L)
/opt/intel/composer_xe_2013.3.163/compiler/lib/intel64/libimf.a(atan2dq_gen.o)
                              /opt/intel/composer_xe_2013.3.163/compiler/lib/intel64/libimf.a(atan2dq_stub.o) (__atan2dq.A)
/opt/intel/composer_xe_2013.3.163/compiler/lib/intel64/libimf.a(atan2q_ct.o)
                              /opt/intel/composer_xe_2013.3.163/compiler/lib/intel64/libimf.a(atan2q_stub.o) (__atan2q.L)
/opt/intel/composer_xe_2013.3.163/compiler/lib/intel64/libimf.a(atan2q_gen.o)
                              /opt/intel/composer_xe_2013.3.163/compiler/lib/intel64/libimf.a(atan2q_stub.o) (__atan2q.A)
/opt/intel/composer_xe_2013.3.163/compiler/lib/intel64/libimf.a(atandq_ct.o)
                              /opt/intel/composer_xe_2013.3.163/compiler/lib/intel64/libimf.a(atandq_stub.o) (__atandq.L)
/opt/intel/composer_xe_2013.3.163/compiler/lib/intel64/libimf.a(atandq_gen.o)
                              /opt/intel/composer_xe_2013.3.163/compiler/lib/intel64/libimf.a(atandq_stub.o) (__atandq.A)
/opt/intel/composer_xe_2013.3.163/compiler/lib/intel64/libimf.a(atanhq_ct.o)
                              /opt/intel/composer_xe_2013.3.163/compiler/lib/intel64/libimf.a(atanhq_stub.o) (__atanhq.L)
/opt/intel/composer_xe_2013.3.163/compiler/lib/intel64/libimf.a(atanhq_gen.o)
                              /opt/intel/composer_xe_2013.3.163/compiler/lib/intel64/libimf.a(atanhq_stub.o) (__atanhq.A)
/opt/intel/composer_xe_2013.3.163/compiler/lib/intel64/libimf.a(atanq_ct.o)
                              /opt/intel/composer_xe_2013.3.163/compiler/lib/intel64/libimf.a(atanq_stub.o) (__atanq.L)
/opt/intel/composer_xe_2013.3.163/compiler/lib/intel64/libimf.a(atanq_gen.o)
                              /opt/intel/composer_xe_2013.3.163/compiler/lib/intel64/libimf.a(atanq_stub.o) (__atanq.A)
/opt/intel/composer_xe_2013.3.163/compiler/lib/intel64/libimf.a(atanq_table.o)
                              /opt/intel/composer_xe_2013.3.163/compiler/lib/intel64/libimf.a(acosdq_ct.o) (__libm128_atanq_table_128x)
/opt/intel/composer_xe_2013.3.163/compiler/lib/intel64/libimf.a(cbrtq_ct.o)
                              /opt/intel/composer_xe_2013.3.163/compiler/lib/intel64/libimf.a(cbrtq_stub.o) (__cbrtq.L)
/opt/intel/composer_xe_2013.3.163/compiler/lib/intel64/libimf.a(cbrtq_gen.o)
                              /opt/intel/composer_xe_2013.3.163/compiler/lib/intel64/libimf.a(cbrtq_stub.o) (__cbrtq.A)
/opt/intel/composer_xe_2013.3.163/compiler/lib/intel64/libimf.a(copysignq.o)
                              /opt/intel/composer_xe_2013.3.163/compiler/lib/intel64/libimf.a(ctanhq.o) (__copysignq)
/opt/intel/composer_xe_2013.3.163/compiler/lib/intel64/libimf.a(cosd_ct.o)
                              /opt/intel/composer_xe_2013.3.163/compiler/lib/intel64/libimf.a(cosd_stub.o) (cosd.L)
/opt/intel/composer_xe_2013.3.163/compiler/lib/intel64/libimf.a(cosdf_ct.o)
                              /opt/intel/composer_xe_2013.3.163/compiler/lib/intel64/libimf.a(cosdf_stub.o) (cosdf.L)
/opt/intel/composer_xe_2013.3.163/compiler/lib/intel64/libimf.a(cosdf_gen.o)
                              /opt/intel/composer_xe_2013.3.163/compiler/lib/intel64/libimf.a(cosdf_stub.o) (cosdf.A)
/opt/intel/composer_xe_2013.3.163/compiler/lib/intel64/libimf.a(cosd_gen.o)
                              /opt/intel/composer_xe_2013.3.163/compiler/lib/intel64/libimf.a(cosd_stub.o) (cosd.A)
/opt/intel/composer_xe_2013.3.163/compiler/lib/intel64/libimf.a(cosdq_ct.o)
                              /opt/intel/composer_xe_2013.3.163/compiler/lib/intel64/libimf.a(cosdq_stub.o) (__cosdq.L)
/opt/intel/composer_xe_2013.3.163/compiler/lib/intel64/libimf.a(cosdq_gen.o)
                              /opt/intel/composer_xe_2013.3.163/compiler/lib/intel64/libimf.a(cosdq_stub.o) (__cosdq.A)
/opt/intel/composer_xe_2013.3.163/compiler/lib/intel64/libimf.a(coshq_ct.o)
                              /opt/intel/composer_xe_2013.3.163/compiler/lib/intel64/libimf.a(coshq_stub.o) (__coshq.L)
/opt/intel/composer_xe_2013.3.163/compiler/lib/intel64/libimf.a(coshq_gen.o)
                              /opt/intel/composer_xe_2013.3.163/compiler/lib/intel64/libimf.a(coshq_stub.o) (__coshq.A)
/opt/intel/composer_xe_2013.3.163/compiler/lib/intel64/libimf.a(cosq_ct.o)
                              /opt/intel/composer_xe_2013.3.163/compiler/lib/intel64/libimf.a(cosq_stub.o) (__cosq.L)
/opt/intel/composer_xe_2013.3.163/compiler/lib/intel64/libimf.a(cosq_gen.o)
                              /opt/intel/composer_xe_2013.3.163/compiler/lib/intel64/libimf.a(cosq_stub.o) (__cosq.A)
/opt/intel/composer_xe_2013.3.163/compiler/lib/intel64/libimf.a(cotd_ct.o)
                              /opt/intel/composer_xe_2013.3.163/compiler/lib/intel64/libimf.a(cotd_stub.o) (cotd.L)
/opt/intel/composer_xe_2013.3.163/compiler/lib/intel64/libimf.a(cotdf_ct.o)
                              /opt/intel/composer_xe_2013.3.163/compiler/lib/intel64/libimf.a(cotdf_stub.o) (cotdf.L)
/opt/intel/composer_xe_2013.3.163/compiler/lib/intel64/libimf.a(cotdf_gen.o)
                              /opt/intel/composer_xe_2013.3.163/compiler/lib/intel64/libimf.a(cotdf_stub.o) (cotdf.A)
/opt/intel/composer_xe_2013.3.163/compiler/lib/intel64/libimf.a(cotd_gen.o)
                              /opt/intel/composer_xe_2013.3.163/compiler/lib/intel64/libimf.a(cotd_stub.o) (cotd.A)
/opt/intel/composer_xe_2013.3.163/compiler/lib/intel64/libimf.a(cotdq_ct.o)
                              /opt/intel/composer_xe_2013.3.163/compiler/lib/intel64/libimf.a(cotdq_stub.o) (__cotdq.L)
/opt/intel/composer_xe_2013.3.163/compiler/lib/intel64/libimf.a(cotdq_gen.o)
                              /opt/intel/composer_xe_2013.3.163/compiler/lib/intel64/libimf.a(cotdq_stub.o) (__cotdq.A)
/opt/intel/composer_xe_2013.3.163/compiler/lib/intel64/libimf.a(cotq_ct.o)
                              /opt/intel/composer_xe_2013.3.163/compiler/lib/intel64/libimf.a(cotq_stub.o) (__cotq.L)
/opt/intel/composer_xe_2013.3.163/compiler/lib/intel64/libimf.a(cotq_gen.o)
                              /opt/intel/composer_xe_2013.3.163/compiler/lib/intel64/libimf.a(cotq_stub.o) (__cotq.A)
/opt/intel/composer_xe_2013.3.163/compiler/lib/intel64/libimf.a(exp10q_ct.o)
                              /opt/intel/composer_xe_2013.3.163/compiler/lib/intel64/libimf.a(exp10q_stub.o) (__exp10q.L)
/opt/intel/composer_xe_2013.3.163/compiler/lib/intel64/libimf.a(exp10q_gen.o)
                              /opt/intel/composer_xe_2013.3.163/compiler/lib/intel64/libimf.a(exp10q_stub.o) (__exp10q.A)
/opt/intel/composer_xe_2013.3.163/compiler/lib/intel64/libimf.a(exp2q_ct.o)
                              /opt/intel/composer_xe_2013.3.163/compiler/lib/intel64/libimf.a(exp2q_stub.o) (__exp2q.L)
/opt/intel/composer_xe_2013.3.163/compiler/lib/intel64/libimf.a(exp2q_gen.o)
                              /opt/intel/composer_xe_2013.3.163/compiler/lib/intel64/libimf.a(exp2q_stub.o) (__exp2q.A)
/opt/intel/composer_xe_2013.3.163/compiler/lib/intel64/libimf.a(expq_ct.o)
                              /opt/intel/composer_xe_2013.3.163/compiler/lib/intel64/libimf.a(expq_stub.o) (__expq.L)
/opt/intel/composer_xe_2013.3.163/compiler/lib/intel64/libimf.a(expq_gen.o)
                              /opt/intel/composer_xe_2013.3.163/compiler/lib/intel64/libimf.a(expq_stub.o) (__expq.A)
/opt/intel/composer_xe_2013.3.163/compiler/lib/intel64/libimf.a(expq_tm1z_table.o)
                              /opt/intel/composer_xe_2013.3.163/compiler/lib/intel64/libimf.a(coshq_ct.o) (__libm128_expq_tm1z_table)
/opt/intel/composer_xe_2013.3.163/compiler/lib/intel64/libimf.a(expq_tz_table.o)
                              /opt/intel/composer_xe_2013.3.163/compiler/lib/intel64/libimf.a(coshq_ct.o) (__libm128_expq_tz_table)
/opt/intel/composer_xe_2013.3.163/compiler/lib/intel64/libimf.a(exp_table.o)
                              /opt/intel/composer_xe_2013.3.163/compiler/lib/intel64/libimf.a(libm_exp10_k64.o) (__libm_exp_table_128)
/opt/intel/composer_xe_2013.3.163/compiler/lib/intel64/libimf.a(hypotq_ct.o)
                              /opt/intel/composer_xe_2013.3.163/compiler/lib/intel64/libimf.a(hypotq_stub.o) (__hypotq.L)
/opt/intel/composer_xe_2013.3.163/compiler/lib/intel64/libimf.a(hypotq_gen.o)
                              /opt/intel/composer_xe_2013.3.163/compiler/lib/intel64/libimf.a(hypotq_stub.o) (__hypotq.A)
/opt/intel/composer_xe_2013.3.163/compiler/lib/intel64/libimf.a(libm128_basics.o)
                              /opt/intel/composer_xe_2013.3.163/compiler/lib/intel64/libimf.a(acosdq_ct.o) (__libm128_convert_128to80x2_p4)
/opt/intel/composer_xe_2013.3.163/compiler/lib/intel64/libimf.a(libm128_l_ops.o)
                              /opt/intel/composer_xe_2013.3.163/compiler/lib/intel64/libimf.a(cbrtq_gen.o) (__libm128_l_fsplit_l_hi)
/opt/intel/composer_xe_2013.3.163/compiler/lib/intel64/libimf.a(libm128_reduce_pi04q.o)
                              /opt/intel/composer_xe_2013.3.163/compiler/lib/intel64/libimf.a(cosq_ct.o) (__libm128_reduce_pi04q)
/opt/intel/composer_xe_2013.3.163/compiler/lib/intel64/libimf.a(libm128_x_ops.o)
                              /opt/intel/composer_xe_2013.3.163/compiler/lib/intel64/libimf.a(acoshq_gen.o) (__libm128_x_resplit_x)
/opt/intel/composer_xe_2013.3.163/compiler/lib/intel64/libimf.a(libm_reduce_pio2ln10.o)
                              /opt/intel/composer_xe_2013.3.163/compiler/lib/intel64/libimf.a(libm_sincosln10_k64.o) (__libm_reduce_pio2ln10)
/opt/intel/composer_xe_2013.3.163/compiler/lib/intel64/libimf.a(log10q_ct.o)
                              /opt/intel/composer_xe_2013.3.163/compiler/lib/intel64/libimf.a(log10q_stub.o) (__log10q.L)
/opt/intel/composer_xe_2013.3.163/compiler/lib/intel64/libimf.a(log10q_gen.o)
                              /opt/intel/composer_xe_2013.3.163/compiler/lib/intel64/libimf.a(log10q_stub.o) (__log10q.A)
/opt/intel/composer_xe_2013.3.163/compiler/lib/intel64/libimf.a(log2q_ct.o)
                              /opt/intel/composer_xe_2013.3.163/compiler/lib/intel64/libimf.a(log2q_stub.o) (__log2q.L)
/opt/intel/composer_xe_2013.3.163/compiler/lib/intel64/libimf.a(log2q_gen.o)
                              /opt/intel/composer_xe_2013.3.163/compiler/lib/intel64/libimf.a(log2q_stub.o) (__log2q.A)
/opt/intel/composer_xe_2013.3.163/compiler/lib/intel64/libimf.a(logq_ct.o)
                              /opt/intel/composer_xe_2013.3.163/compiler/lib/intel64/libimf.a(logq_stub.o) (__logq.L)
/opt/intel/composer_xe_2013.3.163/compiler/lib/intel64/libimf.a(logq_gen.o)
                              /opt/intel/composer_xe_2013.3.163/compiler/lib/intel64/libimf.a(logq_stub.o) (__logq.A)
/opt/intel/composer_xe_2013.3.163/compiler/lib/intel64/libimf.a(logq_hl2z_table.o)
                              /opt/intel/composer_xe_2013.3.163/compiler/lib/intel64/libimf.a(log2q_ct.o) (__libm128_logq_hl2z_table)
/opt/intel/composer_xe_2013.3.163/compiler/lib/intel64/libimf.a(logq_hlgz_table.o)
                              /opt/intel/composer_xe_2013.3.163/compiler/lib/intel64/libimf.a(log10q_ct.o) (__libm128_logq_hlgz_table)
/opt/intel/composer_xe_2013.3.163/compiler/lib/intel64/libimf.a(logq_hlnz_table.o)
                              /opt/intel/composer_xe_2013.3.163/compiler/lib/intel64/libimf.a(acoshq_ct.o) (__libm128_logq_hlnz_table)
/opt/intel/composer_xe_2013.3.163/compiler/lib/intel64/libimf.a(logq_zg_table.o)
                              /opt/intel/composer_xe_2013.3.163/compiler/lib/intel64/libimf.a(acoshq_ct.o) (__libm128_logq_z_table)
/opt/intel/composer_xe_2013.3.163/compiler/lib/intel64/libimf.a(powq_ct.o)
                              /opt/intel/composer_xe_2013.3.163/compiler/lib/intel64/libimf.a(powq_stub.o) (__powq.L)
/opt/intel/composer_xe_2013.3.163/compiler/lib/intel64/libimf.a(powq_gen.o)
                              /opt/intel/composer_xe_2013.3.163/compiler/lib/intel64/libimf.a(powq_stub.o) (__powq.A)
/opt/intel/composer_xe_2013.3.163/compiler/lib/intel64/libimf.a(rcpq_table.o)
                              /opt/intel/composer_xe_2013.3.163/compiler/lib/intel64/libimf.a(libm128_l_ops.o) (__libm128_rcpq_table_256f)
/opt/intel/composer_xe_2013.3.163/compiler/lib/intel64/libimf.a(roundq.o)
                              /opt/intel/composer_xe_2013.3.163/compiler/lib/intel64/libimf.a(cosdq_ct.o) (__roundq)
/opt/intel/composer_xe_2013.3.163/compiler/lib/intel64/libimf.a(scaleq_table.o)
                              /opt/intel/composer_xe_2013.3.163/compiler/lib/intel64/libimf.a(acosdq_ct.o) (__libm128_scaleq_table_256x)
/opt/intel/composer_xe_2013.3.163/compiler/lib/intel64/libimf.a(sincosdq_table.o)
                              /opt/intel/composer_xe_2013.3.163/compiler/lib/intel64/libimf.a(cosdq_ct.o) (__libm128_sincosdq_table_90x)
/opt/intel/composer_xe_2013.3.163/compiler/lib/intel64/libimf.a(sincosd_table.o)
                              /opt/intel/composer_xe_2013.3.163/compiler/lib/intel64/libimf.a(cosd_ct.o) (__libm_sindl_cosdl_table)
/opt/intel/composer_xe_2013.3.163/compiler/lib/intel64/libimf.a(sincosq_table.o)
                              /opt/intel/composer_xe_2013.3.163/compiler/lib/intel64/libimf.a(cosq_ct.o) (__libm128_sincosq_table_512x)
/opt/intel/composer_xe_2013.3.163/compiler/lib/intel64/libimf.a(sind_ct.o)
                              /opt/intel/composer_xe_2013.3.163/compiler/lib/intel64/libimf.a(sind_stub.o) (sind.L)
/opt/intel/composer_xe_2013.3.163/compiler/lib/intel64/libimf.a(sindf_ct.o)
                              /opt/intel/composer_xe_2013.3.163/compiler/lib/intel64/libimf.a(sindf_stub.o) (sindf.L)
/opt/intel/composer_xe_2013.3.163/compiler/lib/intel64/libimf.a(sindf_gen.o)
                              /opt/intel/composer_xe_2013.3.163/compiler/lib/intel64/libimf.a(sindf_stub.o) (sindf.A)
/opt/intel/composer_xe_2013.3.163/compiler/lib/intel64/libimf.a(sind_gen.o)
                              /opt/intel/composer_xe_2013.3.163/compiler/lib/intel64/libimf.a(sind_stub.o) (sind.A)
/opt/intel/composer_xe_2013.3.163/compiler/lib/intel64/libimf.a(sindq_ct.o)
                              /opt/intel/composer_xe_2013.3.163/compiler/lib/intel64/libimf.a(sindq_stub.o) (__sindq.L)
/opt/intel/composer_xe_2013.3.163/compiler/lib/intel64/libimf.a(sindq_gen.o)
                              /opt/intel/composer_xe_2013.3.163/compiler/lib/intel64/libimf.a(sindq_stub.o) (__sindq.A)
/opt/intel/composer_xe_2013.3.163/compiler/lib/intel64/libimf.a(sinhq_ct.o)
                              /opt/intel/composer_xe_2013.3.163/compiler/lib/intel64/libimf.a(sinhq_stub.o) (__sinhq.L)
/opt/intel/composer_xe_2013.3.163/compiler/lib/intel64/libimf.a(sinhq_gen.o)
                              /opt/intel/composer_xe_2013.3.163/compiler/lib/intel64/libimf.a(sinhq_stub.o) (__sinhq.A)
/opt/intel/composer_xe_2013.3.163/compiler/lib/intel64/libimf.a(sinq_ct.o)
                              /opt/intel/composer_xe_2013.3.163/compiler/lib/intel64/libimf.a(sinq_stub.o) (__sinq.L)
/opt/intel/composer_xe_2013.3.163/compiler/lib/intel64/libimf.a(sinq_gen.o)
                              /opt/intel/composer_xe_2013.3.163/compiler/lib/intel64/libimf.a(sinq_stub.o) (__sinq.A)
/opt/intel/composer_xe_2013.3.163/compiler/lib/intel64/libimf.a(tancotdq_table.o)
                              /opt/intel/composer_xe_2013.3.163/compiler/lib/intel64/libimf.a(cotdq_ct.o) (__libm128_tancotdq_table1_90x)
/opt/intel/composer_xe_2013.3.163/compiler/lib/intel64/libimf.a(tand_ct.o)
                              /opt/intel/composer_xe_2013.3.163/compiler/lib/intel64/libimf.a(tand_stub.o) (tand.L)
/opt/intel/composer_xe_2013.3.163/compiler/lib/intel64/libimf.a(tandf_ct.o)
                              /opt/intel/composer_xe_2013.3.163/compiler/lib/intel64/libimf.a(tandf_stub.o) (tandf.L)
/opt/intel/composer_xe_2013.3.163/compiler/lib/intel64/libimf.a(tandf_gen.o)
                              /opt/intel/composer_xe_2013.3.163/compiler/lib/intel64/libimf.a(tandf_stub.o) (tandf.A)
/opt/intel/composer_xe_2013.3.163/compiler/lib/intel64/libimf.a(tand_gen.o)
                              /opt/intel/composer_xe_2013.3.163/compiler/lib/intel64/libimf.a(tand_stub.o) (tand.A)
/opt/intel/composer_xe_2013.3.163/compiler/lib/intel64/libimf.a(tandq_ct.o)
                              /opt/intel/composer_xe_2013.3.163/compiler/lib/intel64/libimf.a(tandq_stub.o) (__tandq.L)
/opt/intel/composer_xe_2013.3.163/compiler/lib/intel64/libimf.a(tandq_gen.o)
                              /opt/intel/composer_xe_2013.3.163/compiler/lib/intel64/libimf.a(tandq_stub.o) (__tandq.A)
/opt/intel/composer_xe_2013.3.163/compiler/lib/intel64/libimf.a(tanhq_ct.o)
                              /opt/intel/composer_xe_2013.3.163/compiler/lib/intel64/libimf.a(tanhq_stub.o) (__tanhq.L)
/opt/intel/composer_xe_2013.3.163/compiler/lib/intel64/libimf.a(tanhq_gen.o)
                              /opt/intel/composer_xe_2013.3.163/compiler/lib/intel64/libimf.a(tanhq_stub.o) (__tanhq.A)
/opt/intel/composer_xe_2013.3.163/compiler/lib/intel64/libimf.a(tanq_ct.o)
                              /opt/intel/composer_xe_2013.3.163/compiler/lib/intel64/libimf.a(tanq_stub.o) (__tanq.L)
/opt/intel/composer_xe_2013.3.163/compiler/lib/intel64/libimf.a(tanq_gen.o)
                              /opt/intel/composer_xe_2013.3.163/compiler/lib/intel64/libimf.a(tanq_stub.o) (__tanq.A)
/opt/intel/composer_xe_2013.3.163/compiler/lib/intel64/libimf.a(expq_table.o)
                              /opt/intel/composer_xe_2013.3.163/compiler/lib/intel64/libimf.a(powq_ct.o) (__libm128_expq_table_256m1x)
/opt/intel/composer_xe_2013.3.163/compiler/lib/intel64/libimf.a(invsqrtl.o)
                              /opt/intel/composer_xe_2013.3.163/compiler/lib/intel64/libimf.a(libm128_x_ops.o) (invsqrtl)
/opt/intel/composer_xe_2013.3.163/compiler/lib/intel64/libimf.a(libm128_y_ops.o)
                              /opt/intel/composer_xe_2013.3.163/compiler/lib/intel64/libimf.a(powq_gen.o) (__libm128_y_scale_yl)
/opt/intel/composer_xe_2013.3.163/compiler/lib/intel64/libimf.a(logq_table.o)
                              /opt/intel/composer_xe_2013.3.163/compiler/lib/intel64/libimf.a(powq_ct.o) (__libm128_logq_table_256x)
/opt/intel/composer_xe_2013.3.163/compiler/lib/intel64/libirc.a(ints2q.o)
                              /opt/intel/composer_xe_2013.3.163/compiler/lib/intel64/libifcore.so.5 (__jtoq)
/opt/intel/composer_xe_2013.3.163/compiler/lib/intel64/libirc.a(negq.o)
                              /opt/intel/composer_xe_2013.3.163/compiler/lib/intel64/libifcore.so.5 (__negq)
/opt/intel/composer_xe_2013.3.163/compiler/lib/intel64/libirc.a(qcomp.o)
                              /opt/intel/composer_xe_2013.3.163/compiler/lib/intel64/libifcore.so.5 (__eqq)
/opt/intel/composer_xe_2013.3.163/compiler/lib/intel64/libirc.a(q2ints.o)
                              /opt/intel/composer_xe_2013.3.163/compiler/lib/intel64/libifcore.so.5 (__qtoj)
/opt/intel/composer_xe_2013.3.163/compiler/lib/intel64/libirc.a(fp2q.o)
                              /opt/intel/composer_xe_2013.3.163/compiler/lib/intel64/libifcore.so.5 (__dtoq)
/opt/intel/composer_xe_2013.3.163/compiler/lib/intel64/libirc.a(q2fp.o)
                              /opt/intel/composer_xe_2013.3.163/compiler/lib/intel64/libifcore.so.5 (__qtod)
/opt/intel/composer_xe_2013.3.163/compiler/lib/intel64/libirc.a(w_addq.o)
                              /opt/intel/composer_xe_2013.3.163/compiler/lib/intel64/libifcore.so.5 (a_addq)
/opt/intel/composer_xe_2013.3.163/compiler/lib/intel64/libirc.a(w_geq.o)
                              /opt/intel/composer_xe_2013.3.163/compiler/lib/intel64/libifcore.so.5 (a_geq)
/opt/intel/composer_xe_2013.3.163/compiler/lib/intel64/libirc.a(w_leq.o)
                              /opt/intel/composer_xe_2013.3.163/compiler/lib/intel64/libifcore.so.5 (a_leq)
/opt/intel/composer_xe_2013.3.163/compiler/lib/intel64/libirc.a(w_mulq.o)
                              /opt/intel/composer_xe_2013.3.163/compiler/lib/intel64/libifcore.so.5 (a_mulq)
/opt/intel/composer_xe_2013.3.163/compiler/lib/intel64/libirc.a(w_subq.o)
                              /opt/intel/composer_xe_2013.3.163/compiler/lib/intel64/libifcore.so.5 (a_subq)
/opt/intel/composer_xe_2013.3.163/compiler/lib/intel64/libirc.a(w_caddq.o)
                              /opt/intel/composer_xe_2013.3.163/compiler/lib/intel64/libifcore.so.5 (a_caddq)
/opt/intel/composer_xe_2013.3.163/compiler/lib/intel64/libirc.a(w_cmulq.o)
                              /opt/intel/composer_xe_2013.3.163/compiler/lib/intel64/libifcore.so.5 (a_cmulq)
/opt/intel/composer_xe_2013.3.163/compiler/lib/intel64/libirc.a(w_csubq.o)
                              /opt/intel/composer_xe_2013.3.163/compiler/lib/intel64/libifcore.so.5 (a_csubq)
/opt/intel/composer_xe_2013.3.163/compiler/lib/intel64/libirc.a(tbk_display.o)
                              /opt/intel/composer_xe_2013.3.163/compiler/lib/intel64/libifcore.so.5 (tbk_string_stack_signal)
/opt/intel/composer_xe_2013.3.163/compiler/lib/intel64/libirc.a(tbk_backtrace.o)
                              /opt/intel/composer_xe_2013.3.163/compiler/lib/intel64/libirc.a(tbk_display.o) (tbk_getPC)
/opt/intel/composer_xe_2013.3.163/compiler/lib/intel64/libirc.a(ia32_memcmp.o)
                              /opt/intel/composer_xe_2013.3.163/compiler/lib/intel64/libifcore.so.5 (_intel_fast_memcmp)
/opt/intel/composer_xe_2013.3.163/compiler/lib/intel64/libirc.a(cpu_disp.o)
                              /opt/intel/composer_xe_2013.3.163/compiler/lib/intel64/libimf.a(atan_stub.o) (__intel_cpu_indicator_init)
/opt/intel/composer_xe_2013.3.163/compiler/lib/intel64/libirc.a(cpu_feature_dispx.o)
                              /opt/intel/composer_xe_2013.3.163/compiler/lib/intel64/libsvml.so (__intel_cpu_features_init_x)
/opt/intel/composer_xe_2013.3.163/compiler/lib/intel64/libirc.a(fastmemcpy.o)
                              reg.o (_intel_fast_memcpy)
/opt/intel/composer_xe_2013.3.163/compiler/lib/intel64/libirc.a(fastmemset.o)
                              reg.o (_intel_fast_memset)
/opt/intel/composer_xe_2013.3.163/compiler/lib/intel64/libirc.a(proc_init.o)
                              DV.o (__intel_new_proc_init)
/opt/intel/composer_xe_2013.3.163/compiler/lib/intel64/libirc.a(proc_init_utils.o)
                              /opt/intel/composer_xe_2013.3.163/compiler/lib/intel64/libirc.a(proc_init.o) (__intel_proc_init_ftzdazule)
/opt/intel/composer_xe_2013.3.163/compiler/lib/intel64/libirc.a(ia32_addsubq.o)
                              /opt/intel/composer_xe_2013.3.163/compiler/lib/intel64/libifcore.so.5 (__addq)
/opt/intel/composer_xe_2013.3.163/compiler/lib/intel64/libirc.a(ia32_mulq.o)
                              /opt/intel/composer_xe_2013.3.163/compiler/lib/intel64/libifcore.so.5 (__mulq)
/opt/intel/composer_xe_2013.3.163/compiler/lib/intel64/libirc.a(ia32_divq.o)
                              /opt/intel/composer_xe_2013.3.163/compiler/lib/intel64/libifcore.so.5 (__divq)
/opt/intel/composer_xe_2013.3.163/compiler/lib/intel64/libirc.a(sse2_strcspn.o)
                              /opt/intel/composer_xe_2013.3.163/compiler/lib/intel64/libifcore.so.5 (__intel_sse2_strcspn)
/opt/intel/composer_xe_2013.3.163/compiler/lib/intel64/libirc.a(sse2_strtok.o)
                              /opt/intel/composer_xe_2013.3.163/compiler/lib/intel64/libifcore.so.5 (__intel_sse2_strtok)
/opt/intel/composer_xe_2013.3.163/compiler/lib/intel64/libirc.a(sse2_strcpy.o)
                              reg.o (__intel_sse2_strcpy)
/opt/intel/composer_xe_2013.3.163/compiler/lib/intel64/libirc.a(sse2_strncpy.o)
                              reg.o (__intel_sse2_strncpy)
/opt/intel/composer_xe_2013.3.163/compiler/lib/intel64/libirc.a(sse2_strlen.o)
                              reg.o (__intel_sse2_strlen)
/opt/intel/composer_xe_2013.3.163/compiler/lib/intel64/libirc.a(sse2_strchr.o)
                              /opt/intel/composer_xe_2013.3.163/compiler/lib/intel64/libimf.a(libm_error.o) (__intel_sse2_strchr)
/opt/intel/composer_xe_2013.3.163/compiler/lib/intel64/libirc.a(sse2_strncmp.o)
                              reg.o (__intel_sse2_strncmp)
/opt/intel/composer_xe_2013.3.163/compiler/lib/intel64/libirc.a(sse2_strcat.o)
                              fncs.o (__intel_sse2_strcat)
/opt/intel/composer_xe_2013.3.163/compiler/lib/intel64/libirc.a(sse2_strncat.o)
                              null_int.o (__intel_sse2_strncat)
/opt/intel/composer_xe_2013.3.163/compiler/lib/intel64/libirc.a(sse2_strdup.o)
                              DV_gui/DV_gui.o (__intel_sse2_strdup)
/opt/intel/composer_xe_2013.3.163/compiler/lib/intel64/libirc.a(fast_memcpy_pp.o)
                              /opt/intel/composer_xe_2013.3.163/compiler/lib/intel64/libirc.a(fastmemcpy.o) (__intel_new_memcpy)
/opt/intel/composer_xe_2013.3.163/compiler/lib/intel64/libirc.a(fast_memset_pp.o)
                              /opt/intel/composer_xe_2013.3.163/compiler/lib/intel64/libirc.a(fastmemset.o) (__intel_new_memset)
/opt/intel/composer_xe_2013.3.163/compiler/lib/intel64/libirc.a(intel_ssse3_memcpy.o)
                              /opt/intel/composer_xe_2013.3.163/compiler/lib/intel64/libirc.a(fastmemcpy.o) (__intel_ssse3_memcpy)
/opt/intel/composer_xe_2013.3.163/compiler/lib/intel64/libirc.a(intel_ssse3_rep_memcpy.o)
                              /opt/intel/composer_xe_2013.3.163/compiler/lib/intel64/libirc.a(fastmemcpy.o) (__intel_ssse3_rep_memcpy)
/opt/intel/composer_xe_2013.3.163/compiler/lib/intel64/libirc.a(irc_msg_support.o)
                              /opt/intel/composer_xe_2013.3.163/compiler/lib/intel64/libirc.a(tbk_backtrace.o) (__libirc_get_msg)
/opt/intel/composer_xe_2013.3.163/compiler/lib/intel64/libirc.a(fast_mem_ops.o)
                              /opt/intel/composer_xe_2013.3.163/compiler/lib/intel64/libirc.a(fast_memset_pp.o) (__libirc_largest_cache_size)
/usr/lib64/libc_nonshared.a(elf-init.oS)
                              /usr/lib/gcc/x86_64-mageia-linux-gnu/4.8.2/../../../../lib64/crt1.o (__libc_csu_init)
/usr/lib64/libc_nonshared.a(stat.oS)
                              /usr/local/intel/lib/libbbhutil.a(sdf.o) (stat)

Allocating common symbols
Common symbol       size              file

norm_c3             0x30018           vis/send_gl_canvas.o
model_mat_save      0x80              DV_gui/DV_gui.o
prev_os_x1_s        0x10              DV_gui/DV_gui.o
gparchar            0x4               /usr/local/intel/lib/libbbhutil.a(gpar.tab.o)
def_AB_etc          0x40              DV_gui/DV_gui.o
prev_os_cmap_type_s
                    0x8               DV_gui/DV_gui.o
DV_calcleng         0x4               DV_calc/lex.DV_calc.o
stop_dv_service     0x4               DV.o
prev_os_bwidth      0x4               vis/send_gl_canvas.o
prev_os_y1          0x8               vis/send_gl_canvas.o
os_cmap_size_x      0x4               vis/send_gl_canvas.o
norm_c2             0x30018           vis/send_gl_canvas.o
prev_os_x1          0x8               vis/send_gl_canvas.o
rend_opts           0x68              vis/send_gl_canvas.o
last_model_mat_s    0x100             DV_gui/DV_gui.o
cmap_lu_g           0x2000            vis/send_gl_canvas.o
os_cmap_bcol_s      0x30              DV_gui/DV_gui.o
gpartext            0x8               /usr/local/intel/lib/libbbhutil.a(lex.gpar.o)
DV_calctext         0x8               DV_calc/lex.DV_calc.o
os_cmap_p2_s        0x30              DV_gui/DV_gui.o
signgamq            0x4               /opt/intel/composer_xe_2013.3.163/compiler/lib/intel64/libimf.a(dpml_ux_lgamma.o)
os_cmap_size_y_s    0x8               DV_gui/DV_gui.o
DV_PORT             0x4               DV.o
last_model_mat      0x80              vis/send_gl_canvas.o
os_cmap_size_y      0x4               vis/send_gl_canvas.o
norm_c1             0x30018           vis/send_gl_canvas.o
os_cmap_bwidth_s    0x8               DV_gui/DV_gui.o
cmap_lu_b           0x2000            vis/send_gl_canvas.o
com_glob_int_       0xf4              rnpl_diff/3d/updates_f3.o
cmap_lu_r           0x2000            vis/send_gl_canvas.o
gparnerrs           0x4               /usr/local/intel/lib/libbbhutil.a(gpar.tab.o)
sg_param_ptr        0x8               /usr/local/intel/lib/libbbhutil.a(gpar.tab.o)
cam_opts_s          0x1e0             DV_gui/DV_gui.o
__signgamq          0x4               /opt/intel/composer_xe_2013.3.163/compiler/lib/intel64/libimf.a(dpml_ux_lgamma.o)
fd_DV_func_window   0x8               DV_gui/DV_gui.o
fd_DV_gl_canvas_window
                    0x8               DV_gui/DV_gui.o
backup_entry        0x338             DV_gui/DV_gui.o
prev_os_bcol_s      0x30              DV_gui/DV_gui.o
fd_DV_annotation_window
                    0x8               DV_gui/DV_gui.o
fd_DV_mstest_userfdef_window
                    0x8               DV_gui/DV_gui.o
userf_table         0x328             DV_gui/DV_gui.o
sym_var_val         0xa0              DV_calc/parse.o
fd_DV_sl_opts_window
                    0x8               DV_gui/DV_gui.o
os_cmap_image_first_s
                    0x8               DV_gui/DV_gui.o
pte_2               0x8               DV_calc/DV_calc.tab.o
first_tok           0x4               /usr/local/intel/lib/libbbhutil.a(gpar.tab.o)
inputerror          0x4               /usr/local/intel/lib/libbbhutil.a(gpar.tab.o)
com_glob_float_     0x8               rnpl_diff/1d/updates_f1.o
sg_param_type       0x4               /usr/local/intel/lib/libbbhutil.a(gpar.tab.o)
fd_DV_mstest_item1_window
                    0x8               DV_gui/DV_gui.o
prev_os_cmap_scheme
                    0x4               vis/send_gl_canvas.o
model_mat_save_s    0x100             DV_gui/DV_gui.o
os_cmap_p1_s        0x30              DV_gui/DV_gui.o
prev_os_cmap_scheme_s
                    0x8               DV_gui/DV_gui.o
prev_canvas_w       0x8               DV_gui/DV_gui.o
prev_os_cmap_type   0x4               vis/send_gl_canvas.o
pte_1               0x8               DV_calc/DV_calc.tab.o
gc_opts             0xf0              vis/send_gl_canvas.o
gparleng            0x8               /usr/local/intel/lib/libbbhutil.a(lex.gpar.o)
os_cmap_size_x_s    0x8               DV_gui/DV_gui.o
fd_DV_main_window   0x8               DV_gui/DV_gui.o
cam_opts            0xf0              vis/send_gl_canvas.o
DV_calclval         0x8               DV_calc/DV_calc.tab.o
sg_param_buf        0x8               /usr/local/intel/lib/libbbhutil.a(gpar.tab.o)
DV_calcnerrs        0x4               DV_calc/DV_calc.tab.o
fd_DV_hvs_window    0x8               DV_gui/DV_gui.o
sg_param_end        0x8               /usr/local/intel/lib/libbbhutil.a(gpar.tab.o)
DV_calcchar         0x4               DV_calc/DV_calc.tab.o
reg_list            0x8               reg.o
prev_os_bcol        0x18              vis/send_gl_canvas.o
rend_opts_s         0xd0              DV_gui/DV_gui.o
n_dl_s              0x8               DV_gui/DV_gui.o
prev_os_y1_s        0x10              DV_gui/DV_gui.o
myasgn              0x28              /usr/local/intel/lib/libbbhutil.a(gpar.tab.o)
fd_DV_diff_window   0x8               DV_gui/DV_gui.o
fd_DV_capture_window
                    0x8               DV_gui/DV_gui.o
fd_DV_dbrowser_window
                    0x8               DV_gui/DV_gui.o
fd_DV_f_select_window
                    0x8               DV_gui/DV_gui.o
reg_list_lock       0x20              reg.o
gotit               0x4               /usr/local/intel/lib/libbbhutil.a(gpar.tab.o)
gc_opts_s           0x1e0             DV_gui/DV_gui.o
com_glob_char_      0x300             rnpl_diff/3d/updates_f3.o
prev_os_bwidth_s    0x8               DV_gui/DV_gui.o
gparlval            0x28              /usr/local/intel/lib/libbbhutil.a(gpar.tab.o)
sym_var_name        0xa0              DV_calc/parse.o
prev_canvas_h       0x8               DV_gui/DV_gui.o
show_os_cmap_s      0x8               DV_gui/DV_gui.o
userf_mode          0x4               DV_gui/DV_gui.o
refresh_GUI_now     0x4               DV.o
os_text_list        0xa00             vis/send_gl_canvas.o

Discarded input sections

 .note.GNU-stack
                0x0000000000000000        0x0 /usr/lib/gcc/x86_64-mageia-linux-gnu/4.8.2/../../../../lib64/crt1.o
 .note.GNU-stack
                0x0000000000000000        0x0 /usr/lib/gcc/x86_64-mageia-linux-gnu/4.8.2/../../../../lib64/crti.o
 .note.GNU-stack
                0x0000000000000000        0x0 /usr/lib/gcc/x86_64-mageia-linux-gnu/4.8.2/crtbegin.o
 .note.GNU-stack
                0x0000000000000000        0x0 DV.o
 .note.GNU-stack
                0x0000000000000000        0x0 reg.o
 .note.GNU-stack
                0x0000000000000000        0x0 misc.o
 .note.GNU-stack
                0x0000000000000000        0x0 instr.o
 .note.GNU-stack
                0x0000000000000000        0x0 misc_f77/misc_f77.o
 .note.GNU-stack
                0x0000000000000000        0x0 fncs.o
 .note.GNU-stack
                0x0000000000000000        0x0 s_iter.o
 .note.GNU-stack
                0x0000000000000000        0x0 DV_gui/DV_forms.o
 .note.GNU-stack
                0x0000000000000000        0x0 DV_gui/DV_gui.o
 .note.GNU-stack
                0x0000000000000000        0x0 vis/send_bbh_xyz.o
 .note.GNU-stack
                0x0000000000000000        0x0 rnpl_diff/1d/updates_f1.o
 .note.GNU-stack
                0x0000000000000000        0x0 rnpl_diff/2d/updates_f2.o
 .note.GNU-stack
                0x0000000000000000        0x0 rnpl_diff/3d/updates_f3.o
 .note.GNU-stack
                0x0000000000000000        0x0 vis/send_accept_sdf.o
 .note.GNU-stack
                0x0000000000000000        0x0 vis/send_gl_canvas.o
 .note.GNU-stack
                0x0000000000000000        0x0 misc_f77/2Dclusterer.o
 .note.GNU-stack
                0x0000000000000000        0x0 misc_f77/dc_clusterer.o
 .note.GNU-stack
                0x0000000000000000        0x0 vis/scr_save.o
 .note.GNU-stack
                0x0000000000000000        0x0 null_int.o
 .note.GNU-stack
                0x0000000000000000        0x0 geod_int.o
 .note.GNU-stack
                0x0000000000000000        0x0 DV_calc/DV_calc.tab.o
 .note.GNU-stack
                0x0000000000000000        0x0 DV_calc/lex.DV_calc.o
 .note.GNU-stack
                0x0000000000000000        0x0 DV_calc/parse.o
 .note.GNU-stack
                0x0000000000000000        0x0 /usr/local/intel/lib/libbbhutil.a(bbhutil.o)
 .note.GNU-stack
                0x0000000000000000        0x0 /usr/local/intel/lib/libbbhutil.a(cliser.o)
 .note.GNU-stack
                0x0000000000000000        0x0 /usr/local/intel/lib/libbbhutil.a(sdf.o)
 .note.GNU-stack
                0x0000000000000000        0x0 /usr/local/intel/lib/libbbhutil.a(gpar.tab.o)
 .note.GNU-stack
                0x0000000000000000        0x0 /usr/local/intel/lib/libbbhutil.a(lex.gpar.o)
 .note.GNU-stack
                0x0000000000000000        0x0 /usr/local/intel/lib/libutilio.a(ctoirang.o)
 .note.GNU-stack
                0x0000000000000000        0x0 /usr/local/intel/lib/libutilio.a(utilexplorer_c.o)
 .note.GNU-stack
                0x0000000000000000        0x0 /opt/intel/composer_xe_2013.3.163/compiler/lib/intel64/libimf.a(atan2.o)
 .note.GNU-stack
                0x0000000000000000        0x0 /opt/intel/composer_xe_2013.3.163/compiler/lib/intel64/libimf.a(atan_stub.o)
 .note.GNU-stack
                0x0000000000000000        0x0 /opt/intel/composer_xe_2013.3.163/compiler/lib/intel64/libimf.a(cbrt_stub.o)
 .note.GNU-stack
                0x0000000000000000        0x0 /opt/intel/composer_xe_2013.3.163/compiler/lib/intel64/libimf.a(ceilf_stub.o)
 .note.GNU-stack
                0x0000000000000000        0x0 /opt/intel/composer_xe_2013.3.163/compiler/lib/intel64/libimf.a(ceil_stub.o)
 .note.GNU-stack
                0x0000000000000000        0x0 /opt/intel/composer_xe_2013.3.163/compiler/lib/intel64/libimf.a(cos_stub.o)
 .note.GNU-stack
                0x0000000000000000        0x0 /opt/intel/composer_xe_2013.3.163/compiler/lib/intel64/libimf.a(exp2f_stub.o)
 .note.GNU-stack
                0x0000000000000000        0x0 /opt/intel/composer_xe_2013.3.163/compiler/lib/intel64/libimf.a(exp_stub.o)
 .note.GNU-stack
                0x0000000000000000        0x0 /opt/intel/composer_xe_2013.3.163/compiler/lib/intel64/libimf.a(floorf_stub.o)
 .note.GNU-stack
                0x0000000000000000        0x0 /opt/intel/composer_xe_2013.3.163/compiler/lib/intel64/libimf.a(floor_stub.o)
 .note.GNU-stack
                0x0000000000000000        0x0 /opt/intel/composer_xe_2013.3.163/compiler/lib/intel64/libimf.a(f__powi4i4.o)
 .note.GNU-stack
                0x0000000000000000        0x0 /opt/intel/composer_xe_2013.3.163/compiler/lib/intel64/libimf.a(isfinite.o)
 .note.GNU-stack
                0x0000000000000000        0x0 /opt/intel/composer_xe_2013.3.163/compiler/lib/intel64/libimf.a(libm_error.o)
 .note.GNU-stack
                0x0000000000000000        0x0 /opt/intel/composer_xe_2013.3.163/compiler/lib/intel64/libimf.a(libm_sse2_sincos.o)
 .note.GNU-stack
                0x0000000000000000        0x0 /opt/intel/composer_xe_2013.3.163/compiler/lib/intel64/libimf.a(log10f_stub.o)
 .note.GNU-stack
                0x0000000000000000        0x0 /opt/intel/composer_xe_2013.3.163/compiler/lib/intel64/libimf.a(log10_stub.o)
 .note.GNU-stack
                0x0000000000000000        0x0 /opt/intel/composer_xe_2013.3.163/compiler/lib/intel64/libimf.a(log_stub.o)
 .note.GNU-stack
                0x0000000000000000        0x0 /opt/intel/composer_xe_2013.3.163/compiler/lib/intel64/libimf.a(matherrf.o)
 .note.GNU-stack
                0x0000000000000000        0x0 /opt/intel/composer_xe_2013.3.163/compiler/lib/intel64/libimf.a(matherrl.o)
 .note.GNU-stack
                0x0000000000000000        0x0 /opt/intel/composer_xe_2013.3.163/compiler/lib/intel64/libimf.a(matherr.o)
 .note.GNU-stack
                0x0000000000000000        0x0 /opt/intel/composer_xe_2013.3.163/compiler/lib/intel64/libimf.a(pow_stub.o)
 .note.GNU-stack
                0x0000000000000000        0x0 /opt/intel/composer_xe_2013.3.163/compiler/lib/intel64/libimf.a(sincosf_stub.o)
 .note.GNU-stack
                0x0000000000000000        0x0 /opt/intel/composer_xe_2013.3.163/compiler/lib/intel64/libimf.a(sincos_stub.o)
 .note.GNU-stack
                0x0000000000000000        0x0 /opt/intel/composer_xe_2013.3.163/compiler/lib/intel64/libimf.a(sin_stub.o)
 .note.GNU-stack
                0x0000000000000000        0x0 /opt/intel/composer_xe_2013.3.163/compiler/lib/intel64/libimf.a(tan_stub.o)
 .note.GNU-stack
                0x0000000000000000        0x0 /opt/intel/composer_xe_2013.3.163/compiler/lib/intel64/libimf.a(atan_ct.o)
 .note.GNU-stack
                0x0000000000000000        0x0 /opt/intel/composer_xe_2013.3.163/compiler/lib/intel64/libimf.a(atan_gen.o)
 .note.GNU-stack
                0x0000000000000000        0x0 /opt/intel/composer_xe_2013.3.163/compiler/lib/intel64/libimf.a(cbrt_ct.o)
 .note.GNU-stack
                0x0000000000000000        0x0 /opt/intel/composer_xe_2013.3.163/compiler/lib/intel64/libimf.a(cbrt_gen.o)
 .note.GNU-stack
                0x0000000000000000        0x0 /opt/intel/composer_xe_2013.3.163/compiler/lib/intel64/libimf.a(ceil_ct.o)
 .note.GNU-stack
                0x0000000000000000        0x0 /opt/intel/composer_xe_2013.3.163/compiler/lib/intel64/libimf.a(ceilf_ct.o)
 .note.GNU-stack
                0x0000000000000000        0x0 /opt/intel/composer_xe_2013.3.163/compiler/lib/intel64/libimf.a(ceilf_gen.o)
 .note.GNU-stack
                0x0000000000000000        0x0 /opt/intel/composer_xe_2013.3.163/compiler/lib/intel64/libimf.a(ceilf_pnr.o)
 .note.GNU-stack
                0x0000000000000000        0x0 /opt/intel/composer_xe_2013.3.163/compiler/lib/intel64/libimf.a(ceil_gen.o)
 .note.GNU-stack
                0x0000000000000000        0x0 /opt/intel/composer_xe_2013.3.163/compiler/lib/intel64/libimf.a(ceil_pnr.o)
 .note.GNU-stack
                0x0000000000000000        0x0 /opt/intel/composer_xe_2013.3.163/compiler/lib/intel64/libimf.a(cos_ct.o)
 .note.GNU-stack
                0x0000000000000000        0x0 /opt/intel/composer_xe_2013.3.163/compiler/lib/intel64/libimf.a(cos_gen.o)
 .note.GNU-stack
                0x0000000000000000        0x0 /opt/intel/composer_xe_2013.3.163/compiler/lib/intel64/libimf.a(cos_pnr.o)
 .note.GNU-stack
                0x0000000000000000        0x0 /opt/intel/composer_xe_2013.3.163/compiler/lib/intel64/libimf.a(exp2f_ct.o)
 .note.GNU-stack
                0x0000000000000000        0x0 /opt/intel/composer_xe_2013.3.163/compiler/lib/intel64/libimf.a(exp2f_gen.o)
 .note.GNU-stack
                0x0000000000000000        0x0 /opt/intel/composer_xe_2013.3.163/compiler/lib/intel64/libimf.a(exp_ct.o)
 .note.GNU-stack
                0x0000000000000000        0x0 /opt/intel/composer_xe_2013.3.163/compiler/lib/intel64/libimf.a(expf_table.o)
 .note.GNU-stack
                0x0000000000000000        0x0 /opt/intel/composer_xe_2013.3.163/compiler/lib/intel64/libimf.a(exp_gen.o)
 .note.GNU-stack
                0x0000000000000000        0x0 /opt/intel/composer_xe_2013.3.163/compiler/lib/intel64/libimf.a(floor_ct.o)
 .note.GNU-stack
                0x0000000000000000        0x0 /opt/intel/composer_xe_2013.3.163/compiler/lib/intel64/libimf.a(floorf_ct.o)
 .note.GNU-stack
                0x0000000000000000        0x0 /opt/intel/composer_xe_2013.3.163/compiler/lib/intel64/libimf.a(floorf_gen.o)
 .note.GNU-stack
                0x0000000000000000        0x0 /opt/intel/composer_xe_2013.3.163/compiler/lib/intel64/libimf.a(floorf_pnr.o)
 .note.GNU-stack
                0x0000000000000000        0x0 /opt/intel/composer_xe_2013.3.163/compiler/lib/intel64/libimf.a(floor_gen.o)
 .note.GNU-stack
                0x0000000000000000        0x0 /opt/intel/composer_xe_2013.3.163/compiler/lib/intel64/libimf.a(floor_pnr.o)
 .note.GNU-stack
                0x0000000000000000        0x0 /opt/intel/composer_xe_2013.3.163/compiler/lib/intel64/libimf.a(libm_reduce_pio2.o)
 .note.GNU-stack
                0x0000000000000000        0x0 /opt/intel/composer_xe_2013.3.163/compiler/lib/intel64/libimf.a(log10_ct.o)
 .note.GNU-stack
                0x0000000000000000        0x0 /opt/intel/composer_xe_2013.3.163/compiler/lib/intel64/libimf.a(log10f_ct.o)
 .note.GNU-stack
                0x0000000000000000        0x0 /opt/intel/composer_xe_2013.3.163/compiler/lib/intel64/libimf.a(log10f_gen.o)
 .note.GNU-stack
                0x0000000000000000        0x0 /opt/intel/composer_xe_2013.3.163/compiler/lib/intel64/libimf.a(log10_gen.o)
 .note.GNU-stack
                0x0000000000000000        0x0 /opt/intel/composer_xe_2013.3.163/compiler/lib/intel64/libimf.a(log_ct.o)
 .note.GNU-stack
                0x0000000000000000        0x0 /opt/intel/composer_xe_2013.3.163/compiler/lib/intel64/libimf.a(logf_table.o)
 .note.GNU-stack
                0x0000000000000000        0x0 /opt/intel/composer_xe_2013.3.163/compiler/lib/intel64/libimf.a(log_gen.o)
 .note.GNU-stack
                0x0000000000000000        0x0 /opt/intel/composer_xe_2013.3.163/compiler/lib/intel64/libimf.a(pow_ct.o)
 .note.GNU-stack
                0x0000000000000000        0x0 /opt/intel/composer_xe_2013.3.163/compiler/lib/intel64/libimf.a(pow_gen.o)
 .note.GNU-stack
                0x0000000000000000        0x0 /opt/intel/composer_xe_2013.3.163/compiler/lib/intel64/libimf.a(rcp_table.o)
 .note.GNU-stack
                0x0000000000000000        0x0 /opt/intel/composer_xe_2013.3.163/compiler/lib/intel64/libimf.a(sincos_ct.o)
 .note.GNU-stack
                0x0000000000000000        0x0 /opt/intel/composer_xe_2013.3.163/compiler/lib/intel64/libimf.a(sincosf_ct.o)
 .note.GNU-stack
                0x0000000000000000        0x0 /opt/intel/composer_xe_2013.3.163/compiler/lib/intel64/libimf.a(sincosf_gen.o)
 .note.GNU-stack
                0x0000000000000000        0x0 /opt/intel/composer_xe_2013.3.163/compiler/lib/intel64/libimf.a(sincos_gen.o)
 .note.GNU-stack
                0x0000000000000000        0x0 /opt/intel/composer_xe_2013.3.163/compiler/lib/intel64/libimf.a(sin_ct.o)
 .note.GNU-stack
                0x0000000000000000        0x0 /opt/intel/composer_xe_2013.3.163/compiler/lib/intel64/libimf.a(sin_gen.o)
 .note.GNU-stack
                0x0000000000000000        0x0 /opt/intel/composer_xe_2013.3.163/compiler/lib/intel64/libimf.a(sin_pnr.o)
 .note.GNU-stack
                0x0000000000000000        0x0 /opt/intel/composer_xe_2013.3.163/compiler/lib/intel64/libimf.a(tan_ct.o)
 .note.GNU-stack
                0x0000000000000000        0x0 /opt/intel/composer_xe_2013.3.163/compiler/lib/intel64/libimf.a(tan_gen.o)
 .note.GNU-stack
                0x0000000000000000        0x0 /d/bh0/home/matt/autoconf/DV/DVCliser//libDVCliser.a(DVCliser.o)
 .note.GNU-stack
                0x0000000000000000        0x0 /opt/intel/composer_xe_2013.3.163/compiler/lib/intel64/libimf.a(acosdf.o)
 .note.GNU-stack
                0x0000000000000000        0x0 /opt/intel/composer_xe_2013.3.163/compiler/lib/intel64/libimf.a(acosdq_stub.o)
 .note.GNU-stack
                0x0000000000000000        0x0 /opt/intel/composer_xe_2013.3.163/compiler/lib/intel64/libimf.a(acosd_stub.o)
 .note.GNU-stack
                0x0000000000000000        0x0 /opt/intel/composer_xe_2013.3.163/compiler/lib/intel64/libimf.a(acoshq_stub.o)
 .note.GNU-stack
                0x0000000000000000        0x0 /opt/intel/composer_xe_2013.3.163/compiler/lib/intel64/libimf.a(acosq_stub.o)
 .note.GNU-stack
                0x0000000000000000        0x0 /opt/intel/composer_xe_2013.3.163/compiler/lib/intel64/libimf.a(asindf.o)
 .note.GNU-stack
                0x0000000000000000        0x0 /opt/intel/composer_xe_2013.3.163/compiler/lib/intel64/libimf.a(asindq_stub.o)
 .note.GNU-stack
                0x0000000000000000        0x0 /opt/intel/composer_xe_2013.3.163/compiler/lib/intel64/libimf.a(asind_stub.o)
 .note.GNU-stack
                0x0000000000000000        0x0 /opt/intel/composer_xe_2013.3.163/compiler/lib/intel64/libimf.a(asinhq_stub.o)
 .note.GNU-stack
                0x0000000000000000        0x0 /opt/intel/composer_xe_2013.3.163/compiler/lib/intel64/libimf.a(asinq_stub.o)
 .note.GNU-stack
                0x0000000000000000        0x0 /opt/intel/composer_xe_2013.3.163/compiler/lib/intel64/libimf.a(atan2dq_stub.o)
 .note.GNU-stack
                0x0000000000000000        0x0 /opt/intel/composer_xe_2013.3.163/compiler/lib/intel64/libimf.a(atan2q_stub.o)
 .note.GNU-stack
                0x0000000000000000        0x0 /opt/intel/composer_xe_2013.3.163/compiler/lib/intel64/libimf.a(atandf.o)
 .note.GNU-stack
                0x0000000000000000        0x0 /opt/intel/composer_xe_2013.3.163/compiler/lib/intel64/libimf.a(atand.o)
 .note.GNU-stack
                0x0000000000000000        0x0 /opt/intel/composer_xe_2013.3.163/compiler/lib/intel64/libimf.a(atandq_stub.o)
 .note.GNU-stack
                0x0000000000000000        0x0 /opt/intel/composer_xe_2013.3.163/compiler/lib/intel64/libimf.a(atanhq_stub.o)
 .note.GNU-stack
                0x0000000000000000        0x0 /opt/intel/composer_xe_2013.3.163/compiler/lib/intel64/libimf.a(atanq_stub.o)
 .note.GNU-stack
                0x0000000000000000        0x0 /opt/intel/composer_xe_2013.3.163/compiler/lib/intel64/libimf.a(cabsq.o)
 .note.GNU-stack
                0x0000000000000000        0x0 /opt/intel/composer_xe_2013.3.163/compiler/lib/intel64/libimf.a(cbrtq_stub.o)
 .note.GNU-stack
                0x0000000000000000        0x0 /opt/intel/composer_xe_2013.3.163/compiler/lib/intel64/libimf.a(ccoshq.o)
 .note.GNU-stack
                0x0000000000000000        0x0 /opt/intel/composer_xe_2013.3.163/compiler/lib/intel64/libimf.a(ccosq.o)
 .note.GNU-stack
                0x0000000000000000        0x0 /opt/intel/composer_xe_2013.3.163/compiler/lib/intel64/libimf.a(ceilq.o)
 .note.GNU-stack
                0x0000000000000000        0x0 /opt/intel/composer_xe_2013.3.163/compiler/lib/intel64/libimf.a(cexp10f.o)
 .note.GNU-stack
                0x0000000000000000        0x0 /opt/intel/composer_xe_2013.3.163/compiler/lib/intel64/libimf.a(cexp10.o)
 .note.GNU-stack
                0x0000000000000000        0x0 /opt/intel/composer_xe_2013.3.163/compiler/lib/intel64/libimf.a(cexp10q.o)
 .note.GNU-stack
                0x0000000000000000        0x0 /opt/intel/composer_xe_2013.3.163/compiler/lib/intel64/libimf.a(cexpq.o)
 .note.GNU-stack
                0x0000000000000000        0x0 /opt/intel/composer_xe_2013.3.163/compiler/lib/intel64/libimf.a(clog10q.o)
 .note.GNU-stack
                0x0000000000000000        0x0 /opt/intel/composer_xe_2013.3.163/compiler/lib/intel64/libimf.a(clogq.o)
 .note.GNU-stack
                0x0000000000000000        0x0 /opt/intel/composer_xe_2013.3.163/compiler/lib/intel64/libimf.a(const_q_table.o)
 .note.GNU-stack
                0x0000000000000000        0x0 /opt/intel/composer_xe_2013.3.163/compiler/lib/intel64/libimf.a(cosdf_stub.o)
 .note.GNU-stack
                0x0000000000000000        0x0 /opt/intel/composer_xe_2013.3.163/compiler/lib/intel64/libimf.a(cosdq_stub.o)
 .note.GNU-stack
                0x0000000000000000        0x0 /opt/intel/composer_xe_2013.3.163/compiler/lib/intel64/libimf.a(cosd_stub.o)
 .note.GNU-stack
                0x0000000000000000        0x0 /opt/intel/composer_xe_2013.3.163/compiler/lib/intel64/libimf.a(coshq_stub.o)
 .note.GNU-stack
                0x0000000000000000        0x0 /opt/intel/composer_xe_2013.3.163/compiler/lib/intel64/libimf.a(cosq_stub.o)
 .note.GNU-stack
                0x0000000000000000        0x0 /opt/intel/composer_xe_2013.3.163/compiler/lib/intel64/libimf.a(cotdf_stub.o)
 .note.GNU-stack
                0x0000000000000000        0x0 /opt/intel/composer_xe_2013.3.163/compiler/lib/intel64/libimf.a(cotdq_stub.o)
 .note.GNU-stack
                0x0000000000000000        0x0 /opt/intel/composer_xe_2013.3.163/compiler/lib/intel64/libimf.a(cotd_stub.o)
 .note.GNU-stack
                0x0000000000000000        0x0 /opt/intel/composer_xe_2013.3.163/compiler/lib/intel64/libimf.a(cotf.o)
 .note.GNU-stack
                0x0000000000000000        0x0 /opt/intel/composer_xe_2013.3.163/compiler/lib/intel64/libimf.a(cot.o)
 .note.GNU-stack
                0x0000000000000000        0x0 /opt/intel/composer_xe_2013.3.163/compiler/lib/intel64/libimf.a(cotq_stub.o)
 .note.GNU-stack
                0x0000000000000000        0x0 /opt/intel/composer_xe_2013.3.163/compiler/lib/intel64/libimf.a(cpowq.o)
 .note.GNU-stack
                0x0000000000000000        0x0 /opt/intel/composer_xe_2013.3.163/compiler/lib/intel64/libimf.a(csinhq.o)
 .note.GNU-stack
                0x0000000000000000        0x0 /opt/intel/composer_xe_2013.3.163/compiler/lib/intel64/libimf.a(csinq.o)
 .note.GNU-stack
                0x0000000000000000        0x0 /opt/intel/composer_xe_2013.3.163/compiler/lib/intel64/libimf.a(csqrtq.o)
 .note.GNU-stack
                0x0000000000000000        0x0 /opt/intel/composer_xe_2013.3.163/compiler/lib/intel64/libimf.a(ctanhq.o)
 .note.GNU-stack
                0x0000000000000000        0x0 /opt/intel/composer_xe_2013.3.163/compiler/lib/intel64/libimf.a(ctanq.o)
 .note.GNU-stack
                0x0000000000000000        0x0 /opt/intel/composer_xe_2013.3.163/compiler/lib/intel64/libimf.a(dpml_ux_bessel.o)
 .note.GNU-stack
                0x0000000000000000        0x0 /opt/intel/composer_xe_2013.3.163/compiler/lib/intel64/libimf.a(dpml_ux_erf.o)
 .note.GNU-stack
                0x0000000000000000        0x0 /opt/intel/composer_xe_2013.3.163/compiler/lib/intel64/libimf.a(dpml_ux_exp.o)
 .note.GNU-stack
                0x0000000000000000        0x0 /opt/intel/composer_xe_2013.3.163/compiler/lib/intel64/libimf.a(dpml_ux_int.o)
 .note.GNU-stack
                0x0000000000000000        0x0 /opt/intel/composer_xe_2013.3.163/compiler/lib/intel64/libimf.a(dpml_ux_lgamma.o)
 .note.GNU-stack
                0x0000000000000000        0x0 /opt/intel/composer_xe_2013.3.163/compiler/lib/intel64/libimf.a(dpml_ux_log.o)
 .note.GNU-stack
                0x0000000000000000        0x0 /opt/intel/composer_xe_2013.3.163/compiler/lib/intel64/libimf.a(dpml_ux_mod.o)
 .note.GNU-stack
                0x0000000000000000        0x0 /opt/intel/composer_xe_2013.3.163/compiler/lib/intel64/libimf.a(dpml_ux_ops_64.o)
 .note.GNU-stack
                0x0000000000000000        0x0 /opt/intel/composer_xe_2013.3.163/compiler/lib/intel64/libimf.a(dpml_ux_ops.o)
 .note.GNU-stack
                0x0000000000000000        0x0 /opt/intel/composer_xe_2013.3.163/compiler/lib/intel64/libimf.a(dpml_ux_powi.o)
 .note.GNU-stack
                0x0000000000000000        0x0 /opt/intel/composer_xe_2013.3.163/compiler/lib/intel64/libimf.a(dpml_ux_sqrt.o)
 .note.GNU-stack
                0x0000000000000000        0x0 /opt/intel/composer_xe_2013.3.163/compiler/lib/intel64/libimf.a(dpml_ux_trig.o)
 .note.GNU-stack
                0x0000000000000000        0x0 /opt/intel/composer_xe_2013.3.163/compiler/lib/intel64/libimf.a(exp10q_stub.o)
 .note.GNU-stack
                0x0000000000000000        0x0 /opt/intel/composer_xe_2013.3.163/compiler/lib/intel64/libimf.a(exp2q_stub.o)
 .note.GNU-stack
                0x0000000000000000        0x0 /opt/intel/composer_xe_2013.3.163/compiler/lib/intel64/libimf.a(expq_stub.o)
 .note.GNU-stack
                0x0000000000000000        0x0 /opt/intel/composer_xe_2013.3.163/compiler/lib/intel64/libimf.a(fabsq.o)
 .note.GNU-stack
                0x0000000000000000        0x0 /opt/intel/composer_xe_2013.3.163/compiler/lib/intel64/libimf.a(floorq.o)
 .note.GNU-stack
                0x0000000000000000        0x0 /opt/intel/composer_xe_2013.3.163/compiler/lib/intel64/libimf.a(frexpq.o)
 .note.GNU-stack
                0x0000000000000000        0x0 /opt/intel/composer_xe_2013.3.163/compiler/lib/intel64/libimf.a(hypotq_stub.o)
 .note.GNU-stack
                0x0000000000000000        0x0 /opt/intel/composer_xe_2013.3.163/compiler/lib/intel64/libimf.a(intel_quad_exception.o)
 .note.GNU-stack
                0x0000000000000000        0x0 /opt/intel/composer_xe_2013.3.163/compiler/lib/intel64/libimf.a(ldexpq.o)
 .note.GNU-stack
                0x0000000000000000        0x0 /opt/intel/composer_xe_2013.3.163/compiler/lib/intel64/libimf.a(libm128_error.o)
 .note.GNU-stack
                0x0000000000000000        0x0 /opt/intel/composer_xe_2013.3.163/compiler/lib/intel64/libimf.a(libm_exp10_k64.o)
 .note.GNU-stack
                0x0000000000000000        0x0 /opt/intel/composer_xe_2013.3.163/compiler/lib/intel64/libimf.a(libm_mul_k64.o)
 .note.GNU-stack
                0x0000000000000000        0x0 /opt/intel/composer_xe_2013.3.163/compiler/lib/intel64/libimf.a(libm_sincosln10_k64.o)
 .note.GNU-stack
                0x0000000000000000        0x0 /opt/intel/composer_xe_2013.3.163/compiler/lib/intel64/libimf.a(log10q_stub.o)
 .note.GNU-stack
                0x0000000000000000        0x0 /opt/intel/composer_xe_2013.3.163/compiler/lib/intel64/libimf.a(log2q_stub.o)
 .note.GNU-stack
                0x0000000000000000        0x0 /opt/intel/composer_xe_2013.3.163/compiler/lib/intel64/libimf.a(logq_stub.o)
 .note.GNU-stack
                0x0000000000000000        0x0 /opt/intel/composer_xe_2013.3.163/compiler/lib/intel64/libimf.a(nextafterq.o)
 .note.GNU-stack
                0x0000000000000000        0x0 /opt/intel/composer_xe_2013.3.163/compiler/lib/intel64/libimf.a(powq_stub.o)
 .note.GNU-stack
                0x0000000000000000        0x0 /opt/intel/composer_xe_2013.3.163/compiler/lib/intel64/libimf.a(rintq.o)
 .note.GNU-stack
                0x0000000000000000        0x0 /opt/intel/composer_xe_2013.3.163/compiler/lib/intel64/libimf.a(scalbnq.o)
 .note.GNU-stack
                0x0000000000000000        0x0 /opt/intel/composer_xe_2013.3.163/compiler/lib/intel64/libimf.a(sindf_stub.o)
 .note.GNU-stack
                0x0000000000000000        0x0 /opt/intel/composer_xe_2013.3.163/compiler/lib/intel64/libimf.a(sindq_stub.o)
 .note.GNU-stack
                0x0000000000000000        0x0 /opt/intel/composer_xe_2013.3.163/compiler/lib/intel64/libimf.a(sind_stub.o)
 .note.GNU-stack
                0x0000000000000000        0x0 /opt/intel/composer_xe_2013.3.163/compiler/lib/intel64/libimf.a(sinhq_stub.o)
 .note.GNU-stack
                0x0000000000000000        0x0 /opt/intel/composer_xe_2013.3.163/compiler/lib/intel64/libimf.a(sinq_stub.o)
 .note.GNU-stack
                0x0000000000000000        0x0 /opt/intel/composer_xe_2013.3.163/compiler/lib/intel64/libimf.a(sqrt_tab_t.o)
 .note.GNU-stack
                0x0000000000000000        0x0 /opt/intel/composer_xe_2013.3.163/compiler/lib/intel64/libimf.a(tandf_stub.o)
 .note.GNU-stack
                0x0000000000000000        0x0 /opt/intel/composer_xe_2013.3.163/compiler/lib/intel64/libimf.a(tandq_stub.o)
 .note.GNU-stack
                0x0000000000000000        0x0 /opt/intel/composer_xe_2013.3.163/compiler/lib/intel64/libimf.a(tand_stub.o)
 .note.GNU-stack
                0x0000000000000000        0x0 /opt/intel/composer_xe_2013.3.163/compiler/lib/intel64/libimf.a(tanhq_stub.o)
 .note.GNU-stack
                0x0000000000000000        0x0 /opt/intel/composer_xe_2013.3.163/compiler/lib/intel64/libimf.a(tanq_stub.o)
 .note.GNU-stack
                0x0000000000000000        0x0 /opt/intel/composer_xe_2013.3.163/compiler/lib/intel64/libimf.a(trig_pi_bits.o)
 .note.GNU-stack
                0x0000000000000000        0x0 /opt/intel/composer_xe_2013.3.163/compiler/lib/intel64/libimf.a(truncq.o)
 .note.GNU-stack
                0x0000000000000000        0x0 /opt/intel/composer_xe_2013.3.163/compiler/lib/intel64/libimf.a(acosd_ct.o)
 .note.GNU-stack
                0x0000000000000000        0x0 /opt/intel/composer_xe_2013.3.163/compiler/lib/intel64/libimf.a(acosd_gen.o)
 .note.GNU-stack
                0x0000000000000000        0x0 /opt/intel/composer_xe_2013.3.163/compiler/lib/intel64/libimf.a(acosdq_ct.o)
 .note.GNU-stack
                0x0000000000000000        0x0 /opt/intel/composer_xe_2013.3.163/compiler/lib/intel64/libimf.a(acosdq_gen.o)
 .note.GNU-stack
                0x0000000000000000        0x0 /opt/intel/composer_xe_2013.3.163/compiler/lib/intel64/libimf.a(acoshq_ct.o)
 .note.GNU-stack
                0x0000000000000000        0x0 /opt/intel/composer_xe_2013.3.163/compiler/lib/intel64/libimf.a(acoshq_gen.o)
 .note.GNU-stack
                0x0000000000000000        0x0 /opt/intel/composer_xe_2013.3.163/compiler/lib/intel64/libimf.a(acosq_ct.o)
 .note.GNU-stack
                0x0000000000000000        0x0 /opt/intel/composer_xe_2013.3.163/compiler/lib/intel64/libimf.a(acosq_gen.o)
 .note.GNU-stack
                0x0000000000000000        0x0 /opt/intel/composer_xe_2013.3.163/compiler/lib/intel64/libimf.a(asind_ct.o)
 .note.GNU-stack
                0x0000000000000000        0x0 /opt/intel/composer_xe_2013.3.163/compiler/lib/intel64/libimf.a(asind_gen.o)
 .note.GNU-stack
                0x0000000000000000        0x0 /opt/intel/composer_xe_2013.3.163/compiler/lib/intel64/libimf.a(asindq_ct.o)
 .note.GNU-stack
                0x0000000000000000        0x0 /opt/intel/composer_xe_2013.3.163/compiler/lib/intel64/libimf.a(asindq_gen.o)
 .note.GNU-stack
                0x0000000000000000        0x0 /opt/intel/composer_xe_2013.3.163/compiler/lib/intel64/libimf.a(asinhq_ct.o)
 .note.GNU-stack
                0x0000000000000000        0x0 /opt/intel/composer_xe_2013.3.163/compiler/lib/intel64/libimf.a(asinhq_gen.o)
 .note.GNU-stack
                0x0000000000000000        0x0 /opt/intel/composer_xe_2013.3.163/compiler/lib/intel64/libimf.a(asinq_ct.o)
 .note.GNU-stack
                0x0000000000000000        0x0 /opt/intel/composer_xe_2013.3.163/compiler/lib/intel64/libimf.a(asinq_gen.o)
 .note.GNU-stack
                0x0000000000000000        0x0 /opt/intel/composer_xe_2013.3.163/compiler/lib/intel64/libimf.a(atan2dq_ct.o)
 .note.GNU-stack
                0x0000000000000000        0x0 /opt/intel/composer_xe_2013.3.163/compiler/lib/intel64/libimf.a(atan2dq_gen.o)
 .note.GNU-stack
                0x0000000000000000        0x0 /opt/intel/composer_xe_2013.3.163/compiler/lib/intel64/libimf.a(atan2q_ct.o)
 .note.GNU-stack
                0x0000000000000000        0x0 /opt/intel/composer_xe_2013.3.163/compiler/lib/intel64/libimf.a(atan2q_gen.o)
 .note.GNU-stack
                0x0000000000000000        0x0 /opt/intel/composer_xe_2013.3.163/compiler/lib/intel64/libimf.a(atandq_ct.o)
 .note.GNU-stack
                0x0000000000000000        0x0 /opt/intel/composer_xe_2013.3.163/compiler/lib/intel64/libimf.a(atandq_gen.o)
 .note.GNU-stack
                0x0000000000000000        0x0 /opt/intel/composer_xe_2013.3.163/compiler/lib/intel64/libimf.a(atanhq_ct.o)
 .note.GNU-stack
                0x0000000000000000        0x0 /opt/intel/composer_xe_2013.3.163/compiler/lib/intel64/libimf.a(atanhq_gen.o)
 .note.GNU-stack
                0x0000000000000000        0x0 /opt/intel/composer_xe_2013.3.163/compiler/lib/intel64/libimf.a(atanq_ct.o)
 .note.GNU-stack
                0x0000000000000000        0x0 /opt/intel/composer_xe_2013.3.163/compiler/lib/intel64/libimf.a(atanq_gen.o)
 .note.GNU-stack
                0x0000000000000000        0x0 /opt/intel/composer_xe_2013.3.163/compiler/lib/intel64/libimf.a(atanq_table.o)
 .note.GNU-stack
                0x0000000000000000        0x0 /opt/intel/composer_xe_2013.3.163/compiler/lib/intel64/libimf.a(cbrtq_ct.o)
 .note.GNU-stack
                0x0000000000000000        0x0 /opt/intel/composer_xe_2013.3.163/compiler/lib/intel64/libimf.a(cbrtq_gen.o)
 .note.GNU-stack
                0x0000000000000000        0x0 /opt/intel/composer_xe_2013.3.163/compiler/lib/intel64/libimf.a(copysignq.o)
 .note.GNU-stack
                0x0000000000000000        0x0 /opt/intel/composer_xe_2013.3.163/compiler/lib/intel64/libimf.a(cosd_ct.o)
 .note.GNU-stack
                0x0000000000000000        0x0 /opt/intel/composer_xe_2013.3.163/compiler/lib/intel64/libimf.a(cosdf_ct.o)
 .note.GNU-stack
                0x0000000000000000        0x0 /opt/intel/composer_xe_2013.3.163/compiler/lib/intel64/libimf.a(cosdf_gen.o)
 .note.GNU-stack
                0x0000000000000000        0x0 /opt/intel/composer_xe_2013.3.163/compiler/lib/intel64/libimf.a(cosd_gen.o)
 .note.GNU-stack
                0x0000000000000000        0x0 /opt/intel/composer_xe_2013.3.163/compiler/lib/intel64/libimf.a(cosdq_ct.o)
 .note.GNU-stack
                0x0000000000000000        0x0 /opt/intel/composer_xe_2013.3.163/compiler/lib/intel64/libimf.a(cosdq_gen.o)
 .note.GNU-stack
                0x0000000000000000        0x0 /opt/intel/composer_xe_2013.3.163/compiler/lib/intel64/libimf.a(coshq_ct.o)
 .note.GNU-stack
                0x0000000000000000        0x0 /opt/intel/composer_xe_2013.3.163/compiler/lib/intel64/libimf.a(coshq_gen.o)
 .note.GNU-stack
                0x0000000000000000        0x0 /opt/intel/composer_xe_2013.3.163/compiler/lib/intel64/libimf.a(cosq_ct.o)
 .note.GNU-stack
                0x0000000000000000        0x0 /opt/intel/composer_xe_2013.3.163/compiler/lib/intel64/libimf.a(cosq_gen.o)
 .note.GNU-stack
                0x0000000000000000        0x0 /opt/intel/composer_xe_2013.3.163/compiler/lib/intel64/libimf.a(cotd_ct.o)
 .note.GNU-stack
                0x0000000000000000        0x0 /opt/intel/composer_xe_2013.3.163/compiler/lib/intel64/libimf.a(cotdf_ct.o)
 .note.GNU-stack
                0x0000000000000000        0x0 /opt/intel/composer_xe_2013.3.163/compiler/lib/intel64/libimf.a(cotdf_gen.o)
 .note.GNU-stack
                0x0000000000000000        0x0 /opt/intel/composer_xe_2013.3.163/compiler/lib/intel64/libimf.a(cotd_gen.o)
 .note.GNU-stack
                0x0000000000000000        0x0 /opt/intel/composer_xe_2013.3.163/compiler/lib/intel64/libimf.a(cotdq_ct.o)
 .note.GNU-stack
                0x0000000000000000        0x0 /opt/intel/composer_xe_2013.3.163/compiler/lib/intel64/libimf.a(cotdq_gen.o)
 .note.GNU-stack
                0x0000000000000000        0x0 /opt/intel/composer_xe_2013.3.163/compiler/lib/intel64/libimf.a(cotq_ct.o)
 .note.GNU-stack
                0x0000000000000000        0x0 /opt/intel/composer_xe_2013.3.163/compiler/lib/intel64/libimf.a(cotq_gen.o)
 .note.GNU-stack
                0x0000000000000000        0x0 /opt/intel/composer_xe_2013.3.163/compiler/lib/intel64/libimf.a(exp10q_ct.o)
 .note.GNU-stack
                0x0000000000000000        0x0 /opt/intel/composer_xe_2013.3.163/compiler/lib/intel64/libimf.a(exp10q_gen.o)
 .note.GNU-stack
                0x0000000000000000        0x0 /opt/intel/composer_xe_2013.3.163/compiler/lib/intel64/libimf.a(exp2q_ct.o)
 .note.GNU-stack
                0x0000000000000000        0x0 /opt/intel/composer_xe_2013.3.163/compiler/lib/intel64/libimf.a(exp2q_gen.o)
 .note.GNU-stack
                0x0000000000000000        0x0 /opt/intel/composer_xe_2013.3.163/compiler/lib/intel64/libimf.a(expq_ct.o)
 .note.GNU-stack
                0x0000000000000000        0x0 /opt/intel/composer_xe_2013.3.163/compiler/lib/intel64/libimf.a(expq_gen.o)
 .note.GNU-stack
                0x0000000000000000        0x0 /opt/intel/composer_xe_2013.3.163/compiler/lib/intel64/libimf.a(expq_tm1z_table.o)
 .note.GNU-stack
                0x0000000000000000        0x0 /opt/intel/composer_xe_2013.3.163/compiler/lib/intel64/libimf.a(expq_tz_table.o)
 .note.GNU-stack
                0x0000000000000000        0x0 /opt/intel/composer_xe_2013.3.163/compiler/lib/intel64/libimf.a(exp_table.o)
 .note.GNU-stack
                0x0000000000000000        0x0 /opt/intel/composer_xe_2013.3.163/compiler/lib/intel64/libimf.a(hypotq_ct.o)
 .note.GNU-stack
                0x0000000000000000        0x0 /opt/intel/composer_xe_2013.3.163/compiler/lib/intel64/libimf.a(hypotq_gen.o)
 .note.GNU-stack
                0x0000000000000000        0x0 /opt/intel/composer_xe_2013.3.163/compiler/lib/intel64/libimf.a(libm128_basics.o)
 .note.GNU-stack
                0x0000000000000000        0x0 /opt/intel/composer_xe_2013.3.163/compiler/lib/intel64/libimf.a(libm128_l_ops.o)
 .note.GNU-stack
                0x0000000000000000        0x0 /opt/intel/composer_xe_2013.3.163/compiler/lib/intel64/libimf.a(libm128_reduce_pi04q.o)
 .note.GNU-stack
                0x0000000000000000        0x0 /opt/intel/composer_xe_2013.3.163/compiler/lib/intel64/libimf.a(libm128_x_ops.o)
 .note.GNU-stack
                0x0000000000000000        0x0 /opt/intel/composer_xe_2013.3.163/compiler/lib/intel64/libimf.a(libm_reduce_pio2ln10.o)
 .note.GNU-stack
                0x0000000000000000        0x0 /opt/intel/composer_xe_2013.3.163/compiler/lib/intel64/libimf.a(log10q_ct.o)
 .note.GNU-stack
                0x0000000000000000        0x0 /opt/intel/composer_xe_2013.3.163/compiler/lib/intel64/libimf.a(log10q_gen.o)
 .note.GNU-stack
                0x0000000000000000        0x0 /opt/intel/composer_xe_2013.3.163/compiler/lib/intel64/libimf.a(log2q_ct.o)
 .note.GNU-stack
                0x0000000000000000        0x0 /opt/intel/composer_xe_2013.3.163/compiler/lib/intel64/libimf.a(log2q_gen.o)
 .note.GNU-stack
                0x0000000000000000        0x0 /opt/intel/composer_xe_2013.3.163/compiler/lib/intel64/libimf.a(logq_ct.o)
 .note.GNU-stack
                0x0000000000000000        0x0 /opt/intel/composer_xe_2013.3.163/compiler/lib/intel64/libimf.a(logq_gen.o)
 .note.GNU-stack
                0x0000000000000000        0x0 /opt/intel/composer_xe_2013.3.163/compiler/lib/intel64/libimf.a(logq_hl2z_table.o)
 .note.GNU-stack
                0x0000000000000000        0x0 /opt/intel/composer_xe_2013.3.163/compiler/lib/intel64/libimf.a(logq_hlgz_table.o)
 .note.GNU-stack
                0x0000000000000000        0x0 /opt/intel/composer_xe_2013.3.163/compiler/lib/intel64/libimf.a(logq_hlnz_table.o)
 .note.GNU-stack
                0x0000000000000000        0x0 /opt/intel/composer_xe_2013.3.163/compiler/lib/intel64/libimf.a(logq_zg_table.o)
 .note.GNU-stack
                0x0000000000000000        0x0 /opt/intel/composer_xe_2013.3.163/compiler/lib/intel64/libimf.a(powq_ct.o)
 .note.GNU-stack
                0x0000000000000000        0x0 /opt/intel/composer_xe_2013.3.163/compiler/lib/intel64/libimf.a(powq_gen.o)
 .note.GNU-stack
                0x0000000000000000        0x0 /opt/intel/composer_xe_2013.3.163/compiler/lib/intel64/libimf.a(rcpq_table.o)
 .note.GNU-stack
                0x0000000000000000        0x0 /opt/intel/composer_xe_2013.3.163/compiler/lib/intel64/libimf.a(roundq.o)
 .note.GNU-stack
                0x0000000000000000        0x0 /opt/intel/composer_xe_2013.3.163/compiler/lib/intel64/libimf.a(scaleq_table.o)
 .note.GNU-stack
                0x0000000000000000        0x0 /opt/intel/composer_xe_2013.3.163/compiler/lib/intel64/libimf.a(sincosdq_table.o)
 .note.GNU-stack
                0x0000000000000000        0x0 /opt/intel/composer_xe_2013.3.163/compiler/lib/intel64/libimf.a(sincosd_table.o)
 .note.GNU-stack
                0x0000000000000000        0x0 /opt/intel/composer_xe_2013.3.163/compiler/lib/intel64/libimf.a(sincosq_table.o)
 .note.GNU-stack
                0x0000000000000000        0x0 /opt/intel/composer_xe_2013.3.163/compiler/lib/intel64/libimf.a(sind_ct.o)
 .note.GNU-stack
                0x0000000000000000        0x0 /opt/intel/composer_xe_2013.3.163/compiler/lib/intel64/libimf.a(sindf_ct.o)
 .note.GNU-stack
                0x0000000000000000        0x0 /opt/intel/composer_xe_2013.3.163/compiler/lib/intel64/libimf.a(sindf_gen.o)
 .note.GNU-stack
                0x0000000000000000        0x0 /opt/intel/composer_xe_2013.3.163/compiler/lib/intel64/libimf.a(sind_gen.o)
 .note.GNU-stack
                0x0000000000000000        0x0 /opt/intel/composer_xe_2013.3.163/compiler/lib/intel64/libimf.a(sindq_ct.o)
 .note.GNU-stack
                0x0000000000000000        0x0 /opt/intel/composer_xe_2013.3.163/compiler/lib/intel64/libimf.a(sindq_gen.o)
 .note.GNU-stack
                0x0000000000000000        0x0 /opt/intel/composer_xe_2013.3.163/compiler/lib/intel64/libimf.a(sinhq_ct.o)
 .note.GNU-stack
                0x0000000000000000        0x0 /opt/intel/composer_xe_2013.3.163/compiler/lib/intel64/libimf.a(sinhq_gen.o)
 .note.GNU-stack
                0x0000000000000000        0x0 /opt/intel/composer_xe_2013.3.163/compiler/lib/intel64/libimf.a(sinq_ct.o)
 .note.GNU-stack
                0x0000000000000000        0x0 /opt/intel/composer_xe_2013.3.163/compiler/lib/intel64/libimf.a(sinq_gen.o)
 .note.GNU-stack
                0x0000000000000000        0x0 /opt/intel/composer_xe_2013.3.163/compiler/lib/intel64/libimf.a(tancotdq_table.o)
 .note.GNU-stack
                0x0000000000000000        0x0 /opt/intel/composer_xe_2013.3.163/compiler/lib/intel64/libimf.a(tand_ct.o)
 .note.GNU-stack
                0x0000000000000000        0x0 /opt/intel/composer_xe_2013.3.163/compiler/lib/intel64/libimf.a(tandf_ct.o)
 .note.GNU-stack
                0x0000000000000000        0x0 /opt/intel/composer_xe_2013.3.163/compiler/lib/intel64/libimf.a(tandf_gen.o)
 .note.GNU-stack
                0x0000000000000000        0x0 /opt/intel/composer_xe_2013.3.163/compiler/lib/intel64/libimf.a(tand_gen.o)
 .note.GNU-stack
                0x0000000000000000        0x0 /opt/intel/composer_xe_2013.3.163/compiler/lib/intel64/libimf.a(tandq_ct.o)
 .note.GNU-stack
                0x0000000000000000        0x0 /opt/intel/composer_xe_2013.3.163/compiler/lib/intel64/libimf.a(tandq_gen.o)
 .note.GNU-stack
                0x0000000000000000        0x0 /opt/intel/composer_xe_2013.3.163/compiler/lib/intel64/libimf.a(tanhq_ct.o)
 .note.GNU-stack
                0x0000000000000000        0x0 /opt/intel/composer_xe_2013.3.163/compiler/lib/intel64/libimf.a(tanhq_gen.o)
 .note.GNU-stack
                0x0000000000000000        0x0 /opt/intel/composer_xe_2013.3.163/compiler/lib/intel64/libimf.a(tanq_ct.o)
 .note.GNU-stack
                0x0000000000000000        0x0 /opt/intel/composer_xe_2013.3.163/compiler/lib/intel64/libimf.a(tanq_gen.o)
 .note.GNU-stack
                0x0000000000000000        0x0 /opt/intel/composer_xe_2013.3.163/compiler/lib/intel64/libimf.a(expq_table.o)
 .note.GNU-stack
                0x0000000000000000        0x0 /opt/intel/composer_xe_2013.3.163/compiler/lib/intel64/libimf.a(invsqrtl.o)
 .note.GNU-stack
                0x0000000000000000        0x0 /opt/intel/composer_xe_2013.3.163/compiler/lib/intel64/libimf.a(libm128_y_ops.o)
 .note.GNU-stack
                0x0000000000000000        0x0 /opt/intel/composer_xe_2013.3.163/compiler/lib/intel64/libimf.a(logq_table.o)
 .note.GNU-stack
                0x0000000000000000        0x0 /opt/intel/composer_xe_2013.3.163/compiler/lib/intel64/libirc.a(ints2q.o)
 .note.GNU-stack
                0x0000000000000000        0x0 /opt/intel/composer_xe_2013.3.163/compiler/lib/intel64/libirc.a(negq.o)
 .note.GNU-stack
                0x0000000000000000        0x0 /opt/intel/composer_xe_2013.3.163/compiler/lib/intel64/libirc.a(qcomp.o)
 .note.GNU-stack
                0x0000000000000000        0x0 /opt/intel/composer_xe_2013.3.163/compiler/lib/intel64/libirc.a(q2ints.o)
 .note.GNU-stack
                0x0000000000000000        0x0 /opt/intel/composer_xe_2013.3.163/compiler/lib/intel64/libirc.a(fp2q.o)
 .note.GNU-stack
                0x0000000000000000        0x0 /opt/intel/composer_xe_2013.3.163/compiler/lib/intel64/libirc.a(q2fp.o)
 .note.GNU-stack
                0x0000000000000000        0x0 /opt/intel/composer_xe_2013.3.163/compiler/lib/intel64/libirc.a(w_addq.o)
 .note.GNU-stack
                0x0000000000000000        0x0 /opt/intel/composer_xe_2013.3.163/compiler/lib/intel64/libirc.a(w_geq.o)
 .note.GNU-stack
                0x0000000000000000        0x0 /opt/intel/composer_xe_2013.3.163/compiler/lib/intel64/libirc.a(w_leq.o)
 .note.GNU-stack
                0x0000000000000000        0x0 /opt/intel/composer_xe_2013.3.163/compiler/lib/intel64/libirc.a(w_mulq.o)
 .note.GNU-stack
                0x0000000000000000        0x0 /opt/intel/composer_xe_2013.3.163/compiler/lib/intel64/libirc.a(w_subq.o)
 .note.GNU-stack
                0x0000000000000000        0x0 /opt/intel/composer_xe_2013.3.163/compiler/lib/intel64/libirc.a(w_caddq.o)
 .note.GNU-stack
                0x0000000000000000        0x0 /opt/intel/composer_xe_2013.3.163/compiler/lib/intel64/libirc.a(w_cmulq.o)
 .note.GNU-stack
                0x0000000000000000        0x0 /opt/intel/composer_xe_2013.3.163/compiler/lib/intel64/libirc.a(w_csubq.o)
 .note.GNU-stack
                0x0000000000000000        0x0 /opt/intel/composer_xe_2013.3.163/compiler/lib/intel64/libirc.a(tbk_display.o)
 .note.GNU-stack
                0x0000000000000000        0x0 /opt/intel/composer_xe_2013.3.163/compiler/lib/intel64/libirc.a(tbk_backtrace.o)
 .note.GNU-stack
                0x0000000000000000        0x0 /opt/intel/composer_xe_2013.3.163/compiler/lib/intel64/libirc.a(ia32_memcmp.o)
 .note.GNU-stack
                0x0000000000000000        0x0 /opt/intel/composer_xe_2013.3.163/compiler/lib/intel64/libirc.a(cpu_disp.o)
 .note.GNU-stack
                0x0000000000000000        0x0 /opt/intel/composer_xe_2013.3.163/compiler/lib/intel64/libirc.a(cpu_feature_dispx.o)
 .note.GNU-stack
                0x0000000000000000        0x0 /opt/intel/composer_xe_2013.3.163/compiler/lib/intel64/libirc.a(fastmemcpy.o)
 .note.GNU-stack
                0x0000000000000000        0x0 /opt/intel/composer_xe_2013.3.163/compiler/lib/intel64/libirc.a(fastmemset.o)
 .note.GNU-stack
                0x0000000000000000        0x0 /opt/intel/composer_xe_2013.3.163/compiler/lib/intel64/libirc.a(proc_init.o)
 .note.GNU-stack
                0x0000000000000000        0x0 /opt/intel/composer_xe_2013.3.163/compiler/lib/intel64/libirc.a(proc_init_utils.o)
 .note.GNU-stack
                0x0000000000000000        0x0 /opt/intel/composer_xe_2013.3.163/compiler/lib/intel64/libirc.a(ia32_addsubq.o)
 .note.GNU-stack
                0x0000000000000000        0x0 /opt/intel/composer_xe_2013.3.163/compiler/lib/intel64/libirc.a(ia32_mulq.o)
 .note.GNU-stack
                0x0000000000000000        0x0 /opt/intel/composer_xe_2013.3.163/compiler/lib/intel64/libirc.a(ia32_divq.o)
 .note.GNU-stack
                0x0000000000000000        0x0 /opt/intel/composer_xe_2013.3.163/compiler/lib/intel64/libirc.a(sse2_strcspn.o)
 .note.GNU-stack
                0x0000000000000000        0x0 /opt/intel/composer_xe_2013.3.163/compiler/lib/intel64/libirc.a(sse2_strtok.o)
 .note.GNU-stack
                0x0000000000000000        0x0 /opt/intel/composer_xe_2013.3.163/compiler/lib/intel64/libirc.a(sse2_strcpy.o)
 .note.GNU-stack
                0x0000000000000000        0x0 /opt/intel/composer_xe_2013.3.163/compiler/lib/intel64/libirc.a(sse2_strncpy.o)
 .note.GNU-stack
                0x0000000000000000        0x0 /opt/intel/composer_xe_2013.3.163/compiler/lib/intel64/libirc.a(sse2_strlen.o)
 .note.GNU-stack
                0x0000000000000000        0x0 /opt/intel/composer_xe_2013.3.163/compiler/lib/intel64/libirc.a(sse2_strchr.o)
 .note.GNU-stack
                0x0000000000000000        0x0 /opt/intel/composer_xe_2013.3.163/compiler/lib/intel64/libirc.a(sse2_strncmp.o)
 .note.GNU-stack
                0x0000000000000000        0x0 /opt/intel/composer_xe_2013.3.163/compiler/lib/intel64/libirc.a(sse2_strcat.o)
 .note.GNU-stack
                0x0000000000000000        0x0 /opt/intel/composer_xe_2013.3.163/compiler/lib/intel64/libirc.a(sse2_strncat.o)
 .note.GNU-stack
                0x0000000000000000        0x0 /opt/intel/composer_xe_2013.3.163/compiler/lib/intel64/libirc.a(sse2_strdup.o)
 .note.GNU-stack
                0x0000000000000000        0x0 /opt/intel/composer_xe_2013.3.163/compiler/lib/intel64/libirc.a(fast_memcpy_pp.o)
 .note.GNU-stack
                0x0000000000000000        0x0 /opt/intel/composer_xe_2013.3.163/compiler/lib/intel64/libirc.a(fast_memset_pp.o)
 .note.GNU-stack
                0x0000000000000000        0x0 /opt/intel/composer_xe_2013.3.163/compiler/lib/intel64/libirc.a(intel_ssse3_memcpy.o)
 .note.GNU-stack
                0x0000000000000000        0x0 /opt/intel/composer_xe_2013.3.163/compiler/lib/intel64/libirc.a(intel_ssse3_rep_memcpy.o)
 .note.GNU-stack
                0x0000000000000000        0x0 /opt/intel/composer_xe_2013.3.163/compiler/lib/intel64/libirc.a(irc_msg_support.o)
 .note.GNU-stack
                0x0000000000000000        0x0 /opt/intel/composer_xe_2013.3.163/compiler/lib/intel64/libirc.a(fast_mem_ops.o)
 .note.GNU-stack
                0x0000000000000000        0x0 /usr/lib64/libc_nonshared.a(elf-init.oS)
 .note.GNU-stack
                0x0000000000000000        0x0 /usr/lib64/libc_nonshared.a(stat.oS)
 .note.GNU-stack
                0x0000000000000000        0x0 /usr/lib/gcc/x86_64-mageia-linux-gnu/4.8.2/crtend.o
 .note.GNU-stack
                0x0000000000000000        0x0 /usr/lib/gcc/x86_64-mageia-linux-gnu/4.8.2/../../../../lib64/crtn.o

Memory Configuration

Name             Origin             Length             Attributes
*default*        0x0000000000000000 0xffffffffffffffff

Linker script and memory map

LOAD /usr/lib/gcc/x86_64-mageia-linux-gnu/4.8.2/../../../../lib64/crt1.o
LOAD /usr/lib/gcc/x86_64-mageia-linux-gnu/4.8.2/../../../../lib64/crti.o
LOAD /usr/lib/gcc/x86_64-mageia-linux-gnu/4.8.2/crtbegin.o
LOAD DV.o
LOAD reg.o
LOAD misc.o
LOAD instr.o
LOAD misc_f77/misc_f77.o
LOAD fncs.o
LOAD s_iter.o
LOAD DV_gui/DV_forms.o
LOAD DV_gui/DV_gui.o
LOAD vis/send_bbh_xyz.o
LOAD rnpl_diff/1d/updates_f1.o
LOAD rnpl_diff/2d/updates_f2.o
LOAD rnpl_diff/3d/updates_f3.o
LOAD vis/send_accept_sdf.o
LOAD vis/send_gl_canvas.o
LOAD misc_f77/2Dclusterer.o
LOAD misc_f77/dc_clusterer.o
LOAD vis/scr_save.o
LOAD null_int.o
LOAD geod_int.o
LOAD DV_calc/DV_calc.tab.o
LOAD DV_calc/lex.DV_calc.o
LOAD DV_calc/parse.o
LOAD /usr/local/intel/lib/libbbhutil.a
LOAD /usr/local/intel/lib/libcliser.a
LOAD /usr/local/intel/lib/libutilio.a
LOAD /usr/lib64/libpthread.so
START GROUP
LOAD /lib64/libpthread.so.0
LOAD /usr/lib64/libpthread_nonshared.a
END GROUP
LOAD /usr/lib64/libjpeg.so
LOAD /usr/lib64/libformsGL.so
LOAD /usr/lib64/libforms.so
LOAD /usr/lib64/libXpm.so
LOAD /usr/lib64/libGLU.so
LOAD /usr/lib64/libGL.so
LOAD /usr/lib64/libXext.so
LOAD /usr/lib64/libX11.so
LOAD /opt/intel/composer_xe_2013.3.163/compiler/lib/intel64/libimf.a
LOAD /usr/lib64/libm.so
LOAD /d/bh0/home/matt/autoconf/DV/DVCliser//libDVCliser.a
LOAD /opt/intel/composer_xe_2013.3.163/compiler/lib/intel64/libsvml.so
LOAD /opt/intel/composer_xe_2013.3.163/compiler/lib/intel64/libifcore.so
LOAD /opt/intel/composer_xe_2013.3.163/compiler/lib/intel64/libifcore.so.5
LOAD /opt/intel/composer_xe_2013.3.163/compiler/lib/intel64/libimf.a
LOAD /usr/lib64/libm.so
LOAD /opt/intel/composer_xe_2013.3.163/compiler/lib/intel64/libimf.a
LOAD /opt/intel/composer_xe_2013.3.163/compiler/lib/intel64/libsvml.a
LOAD /opt/intel/composer_xe_2013.3.163/compiler/lib/intel64/libirng.a
LOAD /usr/lib64/libm.so
LOAD /opt/intel/composer_xe_2013.3.163/compiler/lib/intel64/libipgo.a
LOAD /opt/intel/composer_xe_2013.3.163/compiler/lib/intel64/libdecimal.a
LOAD /opt/intel/composer_xe_2013.3.163/compiler/lib/intel64/libcilkrts.so
LOAD /opt/intel/composer_xe_2013.3.163/compiler/lib/intel64/libcilkrts.so.5
LOAD /usr/lib/gcc/x86_64-mageia-linux-gnu/4.8.2//libstdc++.so
LOAD /usr/lib/gcc/x86_64-mageia-linux-gnu/4.8.2//libgcc.a
LOAD /usr/lib64/libgcc_s.so
LOAD /opt/intel/composer_xe_2013.3.163/compiler/lib/intel64/libirc.a
LOAD /opt/intel/composer_xe_2013.3.163/compiler/lib/intel64/libsvml.a
LOAD /usr/lib64/libc.so
START GROUP
LOAD /lib64/libc.so.6
LOAD /usr/lib64/libc_nonshared.a
LOAD /lib64/ld-linux-x86-64.so.2
END GROUP
LOAD /usr/lib/gcc/x86_64-mageia-linux-gnu/4.8.2//libgcc.a
LOAD /usr/lib64/libgcc_s.so
LOAD /opt/intel/composer_xe_2013.3.163/compiler/lib/intel64/libirc_s.a
LOAD /usr/lib64/libdl.so
LOAD /usr/lib64/libc.so
START GROUP
LOAD /lib64/libc.so.6
LOAD /usr/lib64/libc_nonshared.a
LOAD /lib64/ld-linux-x86-64.so.2
END GROUP
LOAD /usr/lib/gcc/x86_64-mageia-linux-gnu/4.8.2/crtend.o
LOAD /usr/lib/gcc/x86_64-mageia-linux-gnu/4.8.2/../../../../lib64/crtn.o
                0x0000000000400000                PROVIDE (__executable_start, 0x400000)
                0x0000000000400238                . = (0x400000 + SIZEOF_HEADERS)

.interp         0x0000000000400238       0x1c
 *(.interp)
 .interp        0x0000000000400238       0x1c /usr/lib/gcc/x86_64-mageia-linux-gnu/4.8.2/../../../../lib64/crt1.o

.note.ABI-tag   0x0000000000400254       0x20
 .note.ABI-tag  0x0000000000400254       0x20 /usr/lib/gcc/x86_64-mageia-linux-gnu/4.8.2/../../../../lib64/crt1.o

.note.gnu.build-id
                0x0000000000400274       0x24
 *(.note.gnu.build-id)
 .note.gnu.build-id
                0x0000000000400274       0x24 /usr/lib/gcc/x86_64-mageia-linux-gnu/4.8.2/../../../../lib64/crt1.o

.hash           0x0000000000400298      0xc38
 *(.hash)
 .hash          0x0000000000400298      0xc38 /usr/lib/gcc/x86_64-mageia-linux-gnu/4.8.2/../../../../lib64/crt1.o

.gnu.hash
 *(.gnu.hash)

.dynsym         0x0000000000400ed0     0x3078
 *(.dynsym)
 .dynsym        0x0000000000400ed0     0x3078 /usr/lib/gcc/x86_64-mageia-linux-gnu/4.8.2/../../../../lib64/crt1.o

.dynstr         0x0000000000403f48     0x184a
 *(.dynstr)
 .dynstr        0x0000000000403f48     0x184a /usr/lib/gcc/x86_64-mageia-linux-gnu/4.8.2/../../../../lib64/crt1.o

.gnu.version    0x0000000000405792      0x40a
 *(.gnu.version)
 .gnu.version   0x0000000000405792      0x40a /usr/lib/gcc/x86_64-mageia-linux-gnu/4.8.2/../../../../lib64/crt1.o

.gnu.version_d  0x0000000000405ba0        0x0
 *(.gnu.version_d)
 .gnu.version_d
                0x0000000000000000        0x0 /usr/lib/gcc/x86_64-mageia-linux-gnu/4.8.2/../../../../lib64/crt1.o

.gnu.version_r  0x0000000000405ba0       0xf0
 *(.gnu.version_r)
 .gnu.version_r
                0x0000000000405ba0       0xf0 /usr/lib/gcc/x86_64-mageia-linux-gnu/4.8.2/../../../../lib64/crt1.o

.rela.dyn       0x0000000000405c90      0x138
 *(.rela.init)
 *(.rela.text .rela.text.* .rela.gnu.linkonce.t.*)
 .rela.text     0x0000000000000000        0x0 /usr/lib/gcc/x86_64-mageia-linux-gnu/4.8.2/../../../../lib64/crt1.o
 .rela.text.ssse3
                0x0000000000000000        0x0 /usr/lib/gcc/x86_64-mageia-linux-gnu/4.8.2/../../../../lib64/crt1.o
 *(.rela.fini)
 *(.rela.rodata .rela.rodata.* .rela.gnu.linkonce.r.*)
 *(.rela.data .rela.data.* .rela.gnu.linkonce.d.*)
 .rela.data     0x0000000000000000        0x0 /usr/lib/gcc/x86_64-mageia-linux-gnu/4.8.2/../../../../lib64/crt1.o
 *(.rela.tdata .rela.tdata.* .rela.gnu.linkonce.td.*)
 *(.rela.tbss .rela.tbss.* .rela.gnu.linkonce.tb.*)
 *(.rela.ctors)
 *(.rela.dtors)
 *(.rela.got)
 .rela.got      0x0000000000405c90       0xc0 /usr/lib/gcc/x86_64-mageia-linux-gnu/4.8.2/../../../../lib64/crt1.o
 *(.rela.bss .rela.bss.* .rela.gnu.linkonce.b.*)
 .rela.bss      0x0000000000405d50       0x78 /usr/lib/gcc/x86_64-mageia-linux-gnu/4.8.2/../../../../lib64/crt1.o
 *(.rela.ldata .rela.ldata.* .rela.gnu.linkonce.l.*)
 *(.rela.lbss .rela.lbss.* .rela.gnu.linkonce.lb.*)
 *(.rela.lrodata .rela.lrodata.* .rela.gnu.linkonce.lr.*)
 *(.rela.ifunc)

.rela.plt       0x0000000000405dc8     0x1a10
 *(.rela.plt)
 .rela.plt      0x0000000000405dc8     0x1a10 /usr/lib/gcc/x86_64-mageia-linux-gnu/4.8.2/../../../../lib64/crt1.o
                0x00000000004077d8                PROVIDE (__rela_iplt_start, .)
 *(.rela.iplt)
 .rela.iplt     0x0000000000000000        0x0 /usr/lib/gcc/x86_64-mageia-linux-gnu/4.8.2/../../../../lib64/crt1.o
                0x00000000004077d8                PROVIDE (__rela_iplt_end, .)

.init           0x00000000004077d8       0x1a
 *(SORT(.init))
 .init          0x00000000004077d8       0x15 /usr/lib/gcc/x86_64-mageia-linux-gnu/4.8.2/../../../../lib64/crti.o
                0x00000000004077d8                _init
 .init          0x00000000004077ed        0x5 /usr/lib/gcc/x86_64-mageia-linux-gnu/4.8.2/../../../../lib64/crtn.o

.plt            0x0000000000407800     0x1170
 *(.plt)
 .plt           0x0000000000407800     0x1170 /usr/lib/gcc/x86_64-mageia-linux-gnu/4.8.2/../../../../lib64/crt1.o
                0x0000000000407810                sem_destroy@@GLIBC_2.2.5
                0x0000000000407820                ftell@@GLIBC_2.2.5
                0x0000000000407830                glMultMatrixd
                0x0000000000407840                __svml_log2
                0x0000000000407850                glCallList
                0x0000000000407860                __errno_location@@GLIBC_2.2.5
                0x0000000000407870                printf@@GLIBC_2.2.5
                0x0000000000407880                jpeg_CreateCompress@@LIBJPEG_8.0
                0x0000000000407890                glPointSize
                0x00000000004078a0                isspace@@GLIBC_2.2.5
                0x00000000004078b0                for_f90_index
                0x00000000004078c0                for_close
                0x00000000004078d0                strcspn@@GLIBC_2.2.5
                0x00000000004078e0                jpeg_std_error@@LIBJPEG_8.0
                0x00000000004078f0                fl_set_browser_topline
                0x0000000000407900                fl_set_object_gravity
                0x0000000000407910                fl_deselect_browser_line
                0x0000000000407920                rewind@@GLIBC_2.2.5
                0x0000000000407930                bind@@GLIBC_2.2.5
                0x0000000000407940                sprintf@@GLIBC_2.2.5
                0x0000000000407950                fl_get_icm_color
                0x0000000000407960                fl_set_object_lsize
                0x0000000000407970                for_cpystr
                0x0000000000407980                fl_hide_object
                0x0000000000407990                strstr@@GLIBC_2.2.5
                0x00000000004079a0                fl_set_slider_value
                0x00000000004079b0                fl_set_object_color
                0x00000000004079c0                fl_show_colormap
                0x00000000004079d0                XFreeFont
                0x00000000004079e0                glBegin
                0x00000000004079f0                fegetenv@@GLIBC_2.2.5
                0x0000000000407a00                fl_get_browser_topline
                0x0000000000407a10                socket@@GLIBC_2.2.5
                0x0000000000407a20                fl_get_app_mainform
                0x0000000000407a30                glClear
                0x0000000000407a40                glDisable
                0x0000000000407a50                glViewport
                0x0000000000407a60                fl_set_object_lstyle
                0x0000000000407a70                jpeg_set_quality@@LIBJPEG_8.0
                0x0000000000407a80                accept@@GLIBC_2.2.5
                0x0000000000407a90                glNormal3d
                0x0000000000407aa0                strchr@@GLIBC_2.2.5
                0x0000000000407ab0                glColor4d
                0x0000000000407ac0                fl_set_object_label
                0x0000000000407ad0                fl_get_thumbwheel_value
                0x0000000000407ae0                __svml_pow2
                0x0000000000407af0                exp10@@GLIBC_2.2.5
                0x0000000000407b00                fl_addto_browser_chars
                0x0000000000407b10                glClipPlane
                0x0000000000407b20                strlen@@GLIBC_2.2.5
                0x0000000000407b30                memcmp@@GLIBC_2.2.5
                0x0000000000407b40                fl_set_object_lalign
                0x0000000000407b50                vsprintf@@GLIBC_2.2.5
                0x0000000000407b60                glReadPixels
                0x0000000000407b70                fl_set_atclose
                0x0000000000407b80                fl_deselect_browser
                0x0000000000407b90                catopen@@GLIBC_2.2.5
                0x0000000000407ba0                glPixelStorei
                0x0000000000407bb0                fl_add_input
                0x0000000000407bc0                strncpy@@GLIBC_2.2.5
                0x0000000000407bd0                memset@@GLIBC_2.2.5
                0x0000000000407be0                glCallLists
                0x0000000000407bf0                fl_add_choice
                0x0000000000407c00                glXUseXFont
                0x0000000000407c10                fl_addto_choice
                0x0000000000407c20                fl_get_canvas_id
                0x0000000000407c30                pthread_create@@GLIBC_2.2.5
                0x0000000000407c40                glFrustum
                0x0000000000407c50                fl_set_menu_item_mode
                0x0000000000407c60                fl_remove_selected_xevent
                0x0000000000407c70                fl_show_messages
                0x0000000000407c80                fl_addto_browser
                0x0000000000407c90                fl_mouse_button
                0x0000000000407ca0                vsnprintf@@GLIBC_2.2.5
                0x0000000000407cb0                glColorMaterial
                0x0000000000407cc0                fl_add_checkbutton
                0x0000000000407cd0                fl_hide_form
                0x0000000000407ce0                fl_set_browser_fontsize
                0x0000000000407cf0                fl_add_browser
                0x0000000000407d00                calloc@@GLIBC_2.2.5
                0x0000000000407d10                for_cpstr
                0x0000000000407d20                _Unwind_ForcedUnwind@@GCC_3.0
                0x0000000000407d30                fl_replace_choice
                0x0000000000407d40                for_open
                0x0000000000407d50                fl_set_button
                0x0000000000407d60                for_read_seq_fmt
                0x0000000000407d70                fl_set_thumbwheel_value
                0x0000000000407d80                sleep@@GLIBC_2.2.5
                0x0000000000407d90                htonl@@GLIBC_2.2.5
                0x0000000000407da0                fl_show_form
                0x0000000000407db0                sem_post@@GLIBC_2.2.5
                0x0000000000407dc0                strtod@@GLIBC_2.2.5
                0x0000000000407dd0                fl_replace_browser_line
                0x0000000000407de0                fl_show_message
                0x0000000000407df0                glBlendFunc
                0x0000000000407e00                fl_get_input
                0x0000000000407e10                __svml_cos2
                0x0000000000407e20                fl_set_menu_entries
                0x0000000000407e30                glDrawPixels
                0x0000000000407e40                fl_set_object_lcol
                0x0000000000407e50                glPolygonMode
                0x0000000000407e60                memcpy@@GLIBC_2.14
                0x0000000000407e70                __svml_sin2
                0x0000000000407e80                connect@@GLIBC_2.2.5
                0x0000000000407e90                perror@@GLIBC_2.2.5
                0x0000000000407ea0                system@@GLIBC_2.2.5
                0x0000000000407eb0                fl_get_button
                0x0000000000407ec0                fl_get_mouse
                0x0000000000407ed0                isdigit@@GLIBC_2.2.5
                0x0000000000407ee0                fl_set_object_boxtype
                0x0000000000407ef0                fl_end_form
                0x0000000000407f00                fl_bgn_form
                0x0000000000407f10                fl_get_char_height
                0x0000000000407f20                fl_get_slider_value
                0x0000000000407f30                strcpy@@GLIBC_2.2.5
                0x0000000000407f40                glEnable
                0x0000000000407f50                fl_gettime
                0x0000000000407f60                glGetIntegerv
                0x0000000000407f70                fl_get_directory
                0x0000000000407f80                fl_add_text
                0x0000000000407f90                __isoc99_sscanf@@GLIBC_2.7
                0x0000000000407fa0                glHint
                0x0000000000407fb0                fl_get_browser_maxline
                0x0000000000407fc0                fclose@@GLIBC_2.2.5
                0x0000000000407fd0                __xstat@@GLIBC_2.2.5
                0x0000000000407fe0                isalnum@@GLIBC_2.2.5
                0x0000000000407ff0                dladdr@@GLIBC_2.2.5
                0x0000000000408000                fl_add_frame
                0x0000000000408010                fl_set_choice_align
                0x0000000000408020                fileno@@GLIBC_2.2.5
                0x0000000000408030                fdopen@@GLIBC_2.2.5
                0x0000000000408040                jpeg_finish_compress@@LIBJPEG_8.0
                0x0000000000408050                fl_add_labelframe
                0x0000000000408060                readlink@@GLIBC_2.2.5
                0x0000000000408070                for_stop_core
                0x0000000000408080                fl_add_slider
                0x0000000000408090                glTranslated
                0x00000000004080a0                fl_isselected_browser_line
                0x00000000004080b0                fl_set_object_shortcut
                0x00000000004080c0                fl_set_object_callback
                0x00000000004080d0                jpeg_write_scanlines@@LIBJPEG_8.0
                0x00000000004080e0                catgets@@GLIBC_2.2.5
                0x00000000004080f0                strrchr@@GLIBC_2.2.5
                0x0000000000408100                fseek@@GLIBC_2.2.5
                0x0000000000408110                fl_show_object
                0x0000000000408120                fputs@@GLIBC_2.2.5
                0x0000000000408130                XRaiseWindow
                0x0000000000408140                listen@@GLIBC_2.2.5
                0x0000000000408150                glGetDoublev
                0x0000000000408160                sem_wait@@GLIBC_2.2.5
                0x0000000000408170                fl_add_canvas_handler
                0x0000000000408180                gethostbyname@@GLIBC_2.2.5
                0x0000000000408190                regcomp@@GLIBC_2.2.5
                0x00000000004081a0                bcopy@@GLIBC_2.2.5
                0x00000000004081b0                fl_select_browser_line
                0x00000000004081c0                __svml_atan2_mask
                0x00000000004081d0                fl_get_object_geometry
                0x00000000004081e0                fl_add_scrollbutton
                0x00000000004081f0                fflush@@GLIBC_2.2.5
                0x0000000000408200                fopen@@GLIBC_2.2.5
                0x0000000000408210                __svml_log102_mask
                0x0000000000408220                free@@GLIBC_2.2.5
                0x0000000000408230                __svml_sincos2
                0x0000000000408240                atol@@GLIBC_2.2.5
                0x0000000000408250                siglongjmp@@GLIBC_2.2.5
                0x0000000000408260                herror@@GLIBC_2.2.5
                0x0000000000408270                exit@@GLIBC_2.2.5
                0x0000000000408280                _Unwind_GetIP@@GCC_3.0
                0x0000000000408290                getenv@@GLIBC_2.2.5
                0x00000000004082a0                fl_add_box
                0x00000000004082b0                regexec@@GLIBC_2.3.4
                0x00000000004082c0                fl_get_browser
                0x00000000004082d0                sigaction@@GLIBC_2.2.5
                0x00000000004082e0                glRotated
                0x00000000004082f0                ntohl@@GLIBC_2.2.5
                0x0000000000408300                fl_set_form_minsize
                0x0000000000408310                fl_freeze_form
                0x0000000000408320                fl_get_choice_item_text
                0x0000000000408330                fl_clear_choice
                0x0000000000408340                glLoadIdentity
                0x0000000000408350                fl_insert_browser_line
                0x0000000000408360                glEnd
                0x0000000000408370                fl_show_question
                0x0000000000408380                fl_get_browser_line
                0x0000000000408390                malloc@@GLIBC_2.2.5
                0x00000000004083a0                fl_keysym_pressed
                0x00000000004083b0                fl_do_forms
                0x00000000004083c0                jpeg_destroy_compress@@LIBJPEG_8.0
                0x00000000004083d0                __svml_log102
                0x00000000004083e0                fl_delete_browser_line
                0x00000000004083f0                glMatrixMode
                0x0000000000408400                fl_add_button
                0x0000000000408410                shutdown@@GLIBC_2.2.5
                0x0000000000408420                fl_get_choice_maxitems
                0x0000000000408430                fl_set_choice_entries
                0x0000000000408440                fl_set_slider_bounds
                0x0000000000408450                fl_set_thumbwheel_bounds
                0x0000000000408460                strcmp@@GLIBC_2.2.5
                0x0000000000408470                __svml_exp2
                0x0000000000408480                fl_unfreeze_form
                0x0000000000408490                glNewList
                0x00000000004084a0                __svml_atan2
                0x00000000004084b0                __sigsetjmp@@GLIBC_2.2.5
                0x00000000004084c0                fprintf@@GLIBC_2.2.5
                0x00000000004084d0                fl_add_glcanvas
                0x00000000004084e0                glDrawBuffer
                0x00000000004084f0                glFlush
                0x0000000000408500                fl_set_icm_color
                0x0000000000408510                tolower@@GLIBC_2.2.5
                0x0000000000408520                for_write_seq_fmt_xmit
                0x0000000000408530                fl_add_menu
                0x0000000000408540                fl_add_thumbwheel
                0x0000000000408550                getpid@@GLIBC_2.2.5
                0x0000000000408560                glRasterPos2d
                0x0000000000408570                glClearColor
                0x0000000000408580                fread@@GLIBC_2.2.5
                0x0000000000408590                fl_set_app_nomainform
                0x00000000004085a0                gethostname@@GLIBC_2.2.5
                0x00000000004085b0                glVertex3d
                0x00000000004085c0                glColor3d
                0x00000000004085d0                log2f@@GLIBC_2.2.5
                0x00000000004085e0                setenv@@GLIBC_2.2.5
                0x00000000004085f0                jpeg_set_defaults@@LIBJPEG_8.0
                0x0000000000408600                jpeg_start_compress@@LIBJPEG_8.0
                0x0000000000408610                fl_set_object_resize
                0x0000000000408620                feof@@GLIBC_2.2.5
                0x0000000000408630                for_write_seq_fmt
                0x0000000000408640                strtok@@GLIBC_2.2.5
                0x0000000000408650                fgetc@@GLIBC_2.2.5
                0x0000000000408660                fgets@@GLIBC_2.2.5
                0x0000000000408670                fl_get_choice
                0x0000000000408680                glPushMatrix
                0x0000000000408690                snprintf@@GLIBC_2.2.5
                0x00000000004086a0                fesetenv@@GLIBC_2.2.5
                0x00000000004086b0                fl_set_choice_fontsize
                0x00000000004086c0                realloc@@GLIBC_2.2.5
                0x00000000004086d0                fl_initialize
                0x00000000004086e0                glShadeModel
                0x00000000004086f0                fl_get_char_width
                0x0000000000408700                _Unwind_GetRegionStart@@GCC_3.0
                0x0000000000408710                for_write_seq_lis_xmit
                0x0000000000408720                for_write_seq_lis
                0x0000000000408730                cbrtl@@GLIBC_2.2.5
                0x0000000000408740                jpeg_stdio_dest@@LIBJPEG_8.0
                0x0000000000408750                fl_set_form_atclose
                0x0000000000408760                glEndList
                0x0000000000408770                __xpg_basename@@GLIBC_2.2.5
                0x0000000000408780                isatty@@GLIBC_2.2.5
                0x0000000000408790                fl_activate_glcanvas
                0x00000000004087a0                sem_init@@GLIBC_2.2.5
                0x00000000004087b0                glLightfv
                0x00000000004087c0                pthread_exit@@GLIBC_2.2.5
                0x00000000004087d0                strcat@@GLIBC_2.2.5
                0x00000000004087e0                setsockopt@@GLIBC_2.2.5
                0x00000000004087f0                XLoadQueryFont
                0x0000000000408800                glLineWidth
                0x0000000000408810                fl_set_thumbwheel_step
                0x0000000000408820                strdup@@GLIBC_2.2.5
                0x0000000000408830                glXSwapBuffers
                0x0000000000408840                fl_show_fselector
                0x0000000000408850                glPopMatrix
                0x0000000000408860                __svml_log2_mask
                0x0000000000408870                __libc_start_main@@GLIBC_2.2.5
                0x0000000000408880                glOrtho
                0x0000000000408890                fl_set_input
                0x00000000004088a0                fl_get_menu
                0x00000000004088c0                fl_set_choice_fontstyle
                0x00000000004088d0                fl_set_choice
                0x00000000004088e0                fl_add_browser_line
                0x00000000004088f0                fwrite@@GLIBC_2.2.5
                0x0000000000408900                glMaterialfv
                0x0000000000408910                close@@GLIBC_2.2.5
                0x0000000000408920                XLoadFont
                0x0000000000408930                fl_clear_browser
                0x0000000000408940                fl_set_goodies_font
                0x0000000000408950                glColor3f
                0x0000000000408960                glDeleteLists
 *(.iplt)
 .iplt          0x0000000000000000        0x0 /usr/lib/gcc/x86_64-mageia-linux-gnu/4.8.2/../../../../lib64/crt1.o

.text           0x0000000000408970   0x158200
 *(.text.unlikely .text.*_unlikely .text.unlikely.*)
 *(.text.exit .text.exit.*)
 *(.text.startup .text.startup.*)
 *(.text.hot .text.hot.*)
 *(.text .stub .text.* .gnu.linkonce.t.*)
 .text          0x0000000000408970       0x2a /usr/lib/gcc/x86_64-mageia-linux-gnu/4.8.2/../../../../lib64/crt1.o
                0x0000000000408970                _start
 .text          0x000000000040899a        0x0 /usr/lib/gcc/x86_64-mageia-linux-gnu/4.8.2/../../../../lib64/crti.o
 *fill*         0x000000000040899a        0x6 
 .text          0x00000000004089a0       0xc5 /usr/lib/gcc/x86_64-mageia-linux-gnu/4.8.2/crtbegin.o
 *fill*         0x0000000000408a65        0xb 
 .text          0x0000000000408a70      0x260 DV.o
                0x0000000000408a70                main
                0x0000000000408c20                dv_service
 .text          0x0000000000408cd0     0x3d50 reg.o
                0x0000000000408cd0                sizeof_data
                0x0000000000408e10                sizeof_coords
                0x0000000000409050                gfree
                0x0000000000409080                find_reg
                0x00000000004090f0                add_grid
                0x0000000000409170                delete_reg_contents
                0x0000000000409270                delete_reg
                0x00000000004093f0                delete_grids
                0x0000000000409730                shut_down_dv
                0x0000000000409880                get_coord_index
                0x00000000004099f0                set_coord_name
                0x0000000000409b40                grid_str_eq
                0x0000000000409c40                gridcmp
                0x000000000040a740                clone_reg
                0x000000000040abd0                add_grid_str
                0x000000000040b2d0                galloc
                0x000000000040ba20                rename_reg
                0x000000000040bc80                gclip
                0x000000000040c620                merge_reg
                0x000000000040c9d0                initialize_dv
 .text          0x000000000040ca20      0x140 misc.o
                0x000000000040ca20                fuzz_eq
                0x000000000040ca40                fuzz_lt
                0x000000000040ca50                fuzz_lte
                0x000000000040ca60                fuzz_gt
                0x000000000040ca70                fuzz_gte
                0x000000000040ca80                first_c
                0x000000000040caa0                next_c
                0x000000000040cac0                Pl_x
 .text          0x000000000040cb60     0x1ee0 instr.o
                0x000000000040cb60                instr_read_sdf_stream
                0x000000000040d560                instr_read_sdf
                0x000000000040db00                instr_write_sdf
                0x000000000040ddd0                instr_write_sdf_stream
                0x000000000040dee0                open_rhost
                0x000000000040e050                close_rhost
                0x000000000040e070                instr_route
                0x000000000040e510                instr_ex_dv_calc_prog
                0x000000000040e5a0                instr_mem_usage
                0x000000000040e760                instr_dump_all
 .text          0x000000000040ea40    0x1d6b0 misc_f77/misc_f77.o
                0x000000000040ea40                separate_rb_
                0x000000000040ed90                uni_avg_
                0x000000000040f570                diss_ko2_
                0x00000000004108a0                d_byrhosq_
                0x0000000000410c30                pl_x_
                0x0000000000410cb0                plm_x_
                0x0000000000410f00                cylm_coeff_
                0x0000000000411a00                cm2y2pm2_coeff_
                0x0000000000413430                cm2yl6m_coeff_
                0x00000000004148c0                eval_m2ylm_l6_
                0x00000000004156a0                fill_cylm_
                0x0000000000415e30                fill_cm2y2pm2_
                0x0000000000416f30                int_f_ds_
                0x0000000000417550                distance_2bh_
                0x0000000000417790                eval_
                0x0000000000417bd0                eval0_
                0x00000000004180b0                extend_odd_
                0x0000000000418240                extend_
                0x000000000041a1c0                diss_ko_axis_
                0x000000000041ad70                diss_ko_
                0x000000000041bf30                fill_eps_
                0x000000000041c230                get_avg_delta_
                0x000000000041c4c0                apply_dis_ex_bdy_
                0x000000000041d630                dmi4q1_
                0x000000000041d8f0                dvi4q1_s_
                0x000000000041de90                dmdiss3d_
                0x0000000000420b40                dmdiss3d_ex_
                0x0000000000425680                dmrepop3d1_
                0x0000000000426c40                smooth_ah_r_
                0x00000000004289d0                gh3d_ah_best_fit_
                0x000000000042ab00                fill_i4psi4_
                0x000000000042b400                diss_ko_1d_
                0x000000000042b8a0                d_overrho_d_
                0x000000000042be80                d_overrho_
 .text          0x000000000042c0f0    0x1e580 fncs.o
                0x000000000042c0f0                apply_unary_gf
                0x000000000042c710                apply_binary_gf
                0x000000000042cf40                merge_gf
                0x000000000042d2a0                s_diff
                0x000000000042d7e0                s_diff_CN
                0x000000000042ddf0                gf_add
                0x000000000042dfc0                gf_sub
                0x000000000042e190                gf_mult
                0x000000000042e360                gf_div
                0x000000000042e520                get_single_farg
                0x000000000042e5b0                gf_smult
                0x000000000042e840                gf_smult_x
                0x000000000042eab0                gf_unit_bbox
                0x000000000042eb70                gf_sadd
                0x000000000042ede0                gf_sadd_x
                0x000000000042efb0                gf_pow
                0x000000000042f2a0                gf_ln
                0x000000000042f580                gf_log
                0x000000000042f860                gf_exp
                0x000000000042fa70                gf_sin
                0x000000000042fc80                gf_cos
                0x000000000042fe90                gf_abs
                0x0000000000430090                gf_clone
                0x00000000004300c0                gf_trim
                0x0000000000430220                gf_zero_bnd
                0x00000000004304c0                gf_ln_ts_m_t
                0x0000000000430630                gf_t_to_lt
                0x00000000004307f0                gf_coords
                0x00000000004310b0                gf_l2norm
                0x0000000000431460                gf_infnorm
                0x0000000000431870                gf_min
                0x0000000000431c30                gf_max
                0x00000000004323b0                gf_extremum
                0x0000000000432800                gf_r
                0x0000000000432920                gf_multr_p
                0x0000000000432b70                gf_mass_dens
                0x0000000000432dd0                gf_fix_sf
                0x0000000000432e50                gf_fix_mc_mr
                0x00000000004330f0                gf_dc_2dcls
                0x00000000004336a0                gf_apply_dis_ex_bdy
                0x0000000000433970                gf_de_dt
                0x00000000004340a0                gf_int_fds
                0x0000000000434210                gf_extend
                0x0000000000434b80                gf_diss_ko2
                0x0000000000434e90                gf_dmdiss3d
                0x00000000004352e0                gf_dmrepop3d
                0x00000000004355b0                gf_int_psi4_r
                0x0000000000436f00                gf_diss_ko_1d
                0x0000000000436ff0                gf_cylm
                0x0000000000437a40                sf_overlap
                0x0000000000437fc0                sf_urbs_dV_dp
                0x0000000000438cb0                sf_p_embed
                0x00000000004393a0                gf_psi4_to_h
                0x000000000043a7a0                map_lm_spec
                0x000000000043a830                map_lm_q
                0x000000000043a870                map_lm_cind
                0x000000000043a890                map_lm_cind6
                0x000000000043a8a0                gf_cm2yl6m
                0x000000000043c300                gf_int_psi4_spec_r
                0x000000000043d1f0                gf_multbyrp
                0x000000000043d830                gf_smooth_ah_r
                0x000000000043da00                gf_uncompact
                0x000000000043e190                gf_uni_avg
                0x000000000043e3b0                gf_separate_rb
                0x000000000043e430                gf_distance_2BH
                0x000000000043e4c0                gf_d_byrhosq
                0x000000000043e590                gf_spec_coeff
                0x000000000043eba0                gf_r_to_lnr
                0x000000000043ee80                gf_rt_to_xy
                0x000000000043f140                gf_rtp_to_zxy
                0x000000000043fbf0                gf_bbh_t_to_v
                0x00000000004409b0                gf_bbh_quad
                0x0000000000441a60                read_txyz
                0x0000000000441ec0                gf_eval_r
                0x00000000004426d0                eval_2d
                0x0000000000442c70                eval_3d
                0x00000000004436e0                gf_local_max
                0x00000000004438c0                gf_ln_tps_m_tp
                0x00000000004443f0                gf_coarsen
                0x00000000004449e0                gf_bound
                0x0000000000444bd0                gf_2dinterpolate
                0x0000000000444d70                gf_to_uniform_unigrid
                0x00000000004454d0                gf_eval
                0x0000000000445940                t_diff
                0x0000000000445e50                gf_bs_ddz
                0x0000000000446040                gf_bs_f1
                0x00000000004461f0                gf_bs_attach_nu
                0x0000000000446780                find_bubbles
                0x0000000000446ac0                gf_bs_embed2
                0x0000000000447c50                gf_bs_embed3
                0x0000000000447ee0                gf_bs_embed
                0x0000000000448080                gf_bs_first_nz
                0x0000000000448180                gf_bs_shift_embed
                0x00000000004485a0                sf_inspiral
                0x0000000000448b50                gf_ds_gamma
                0x0000000000448c90                gf_half_spin
                0x0000000000448fe0                sf_j_int
                0x0000000000449b20                gf_A_vs_B_x_to_t
                0x000000000044a150                eval_1d
                0x000000000044a480                gf_A_vs_B
                0x000000000044a4d0                gf_d_overrho_d
                0x000000000044a5a0                gf_d_overrho
 .text          0x000000000044a670     0x16f0 s_iter.o
                0x000000000044a670                s_iter_set_selected
                0x000000000044aad0                next_g
                0x000000000044ab70                next_l
                0x000000000044abf0                next_ts
                0x000000000044ac40                save_s_iter
                0x000000000044ac80                restore_s_iter
                0x000000000044acc0                set_ibbox
                0x000000000044adb0                init_s_iter
 .text          0x000000000044bd60     0x52d0 DV_gui/DV_forms.o
                0x000000000044bd60                create_form_DV_main_window
                0x000000000044c620                create_form_DV_diff_window
                0x000000000044cac0                create_form_DV_func_window
                0x000000000044d360                create_form_DV_gl_canvas_window
                0x000000000044d8c0                create_form_DV_sl_opts_window
                0x000000000044e5e0                create_form_DV_capture_window
                0x000000000044e8f0                create_form_DV_annotation_window
                0x000000000044f270                create_form_DV_dbrowser_window
                0x000000000044f870                create_form_DV_hvs_window
                0x000000000044fdd0                create_form_DV_mstest_item1_window
                0x00000000004505b0                create_form_DV_mstest_userfdef_window
                0x0000000000450dd0                create_form_DV_f_select_window
 .text          0x0000000000451030    0x396a0 DV_gui/DV_gui.o
                0x0000000000451030                start_gui
                0x0000000000452a60                load_options
                0x0000000000453aa0                save_gl_canvas
                0x0000000000453e50                restore_gl_canvas
                0x0000000000454200                switch_gl_canvas
                0x00000000004549d0                gl_canvas_close_cb
                0x00000000004554b0                open_gl_canvas
                0x0000000000455c90                hvs_close_cb
                0x0000000000456780                open_hvs
                0x0000000000456f60                close_cb
                0x0000000000456fc0                diff_close_cb
                0x0000000000456fd0                func_close_cb
                0x0000000000456fe0                options_close_cb
                0x0000000000456ff0                capture_close_cb
                0x0000000000457000                f_select_close_cb
                0x0000000000457010                annotation_close_cb
                0x0000000000457020                dbrowser_close_cb
                0x0000000000457040                null_cb
                0x0000000000457050                save_options
                0x00000000004575d0                replace_ann_edit_fs
                0x0000000000457730                load_def_options
                0x0000000000457890                file_menu_cb
                0x00000000004580c0                edit_menu_cb
                0x0000000000458b60                debug_menu_cb
                0x0000000000458ba0                add_to_hist
                0x0000000000458c80                options_cb
                0x0000000000458ce0                dv_browser_cb
                0x000000000045a5b0                db_new_grid
                0x000000000045a860                refresh_db
                0x000000000045b590                set_gc_opts
                0x000000000045ca80                browser_up_cb
                0x000000000045d7d0                browser_down_cb
                0x000000000045e560                view_menu_cb
                0x000000000045e730                help_menu_cb
                0x000000000045e740                delete_cb
                0x000000000045eef0                merge_cb
                0x000000000045f690                functions_cb
                0x000000000045f6f0                get_selected_func
                0x000000000045f770                func_build_name
                0x000000000045f8a0                func_browser_cb
                0x000000000045fa20                func_reg_a_cb
                0x000000000045fb40                func_reg_b_cb
                0x000000000045fc60                func_filter_hist_cb
                0x000000000045fcb0                func_arg_hist_cb
                0x000000000045fd00                func_go_cb
                0x00000000004602d0                func_cb
                0x0000000000460410                diff_cb
                0x0000000000460470                diff_browser_cb
                0x0000000000460700                diff_mask_cb
                0x0000000000460780                diff_go_cb
                0x0000000000460a60                diff_wrt_cb
                0x0000000000460b50                send_to_acceptXYZ_cb
                0x0000000000460b60                send_to_acceptSDF_cb
                0x0000000000460b70                send_to_local_cb
                0x0000000000461c40                sl_opts_which_canvas_cb
                0x0000000000462ea0                sl_opts_concat_grids_cb
                0x00000000004636b0                sl_opts_monotone_cb
                0x0000000000463ec0                sl_opts_cmap_scheme_cb
                0x0000000000463ef0                sl_3D_bbox_only_cb
                0x0000000000464700                sl_color_clip_cb
                0x0000000000464f10                sl_opts_levelcolor_cb
                0x0000000000465720                sl_opts_fg_color_cb
                0x0000000000465fb0                sl_opts_sync_cb
                0x00000000004667b0                sl_opts_amr_cb
                0x0000000000466fa0                sl_opts_ignore_cb
                0x00000000004677b0                sl_opts_use_mask_cb
                0x0000000000467fa0                sl_opts_use_givec_cb
                0x0000000000468790                sl_opts_coarsen_cb
                0x0000000000468fb0                sl_opts_scale_hist_cb
                0x0000000000469800                sl_opts_cmap_hist_cb
                0x000000000046a110                sl_opts_givec_hist_cb
                0x000000000046a960                show_gl_particle_f_select
                0x000000000046a9c0                show_gl_screen_capture
                0x000000000046aa20                show_gl_annotation_cb
                0x000000000046aa80                gl_options_menu_cb
                0x000000000046b490                hvs_options_menu_cb
                0x000000000046bd90                refresh_os_text
                0x000000000046bdc0                gl_ann_edit_cb
                0x000000000046be20                gl_ann_font_cb
                0x000000000046be80                gl_ann_color_cb
                0x000000000046bf60                gl_ann_bbox_color_cb
                0x000000000046c800                gl_ann_bg_color_cb
                0x000000000046d0a0                gl_ann_anti_alias_cb
                0x000000000046d8b0                gl_ann_bbox_width_cb
                0x000000000046e0d0                gl_ann_1d_pt_size_cb
                0x000000000046e8f0                gl_ann_1d_line_width_cb
                0x000000000046f110                gl_ann_pos_text_cb
                0x000000000046f140                gl_ann_pos_cmap_cb
                0x000000000046f170                gl_ann_disp_cmap_cb
                0x000000000046f990                gl_ann_border_width_cb
                0x00000000004701c0                gl_ann_border_color_cb
                0x0000000000470a40                gl_ann_format_str_cb
                0x0000000000470be0                gl_ann_which_canvas_cb
                0x0000000000471d50                gl_home_1d_cb
                0x00000000004724c0                gl_home_cb
                0x0000000000472ec0                hvs_home_cb
                0x00000000004736b0                hvs_x_slice_cb
                0x0000000000474750                hvs_y_slice_cb
                0x00000000004757f0                hvs_z_slice_cb
                0x0000000000476890                hvs_inc_slice_cb
                0x0000000000477120                hvs_dec_slice_cb
                0x00000000004779b0                set_hvs_thumbwheel
                0x0000000000478260                hvs_slice_slider_cb
                0x0000000000478b20                gl_zoom_hist_cb
                0x0000000000478b70                gl_theta_hist_cb
                0x0000000000478bc0                gl_phi_hist_cb
                0x0000000000478c10                gl_canvas_event_handler
                0x000000000047a1b0                hvs_cb
                0x000000000047a9a0                capture_browse_cb
                0x000000000047a9e0                capture_cb
                0x000000000047aaa0                f_select_cb
                0x000000000047ab60                f_select_scmin_cb
                0x000000000047aba0                f_select_scmax_cb
                0x000000000047abe0                f_select_cm_min_cb
                0x000000000047abf0                f_select_cm_max_cb
                0x000000000047ac00                get_gl_cm_min
                0x000000000047ac30                get_gl_cm_max
                0x000000000047ac60                get_gl_f_min
                0x000000000047acf0                get_gl_f_max
                0x000000000047ad80                get_gl_which_particle_f
                0x000000000047ae40                db_h_slider_cb
                0x000000000047bb80                db_v_slider_cb
                0x000000000047c8c0                db_data_fs_cb
                0x000000000047d5f0                db_coord_fs_cb
                0x000000000047e320                db_reverse_y_cb
                0x000000000047f060                db_sm_save_cb
                0x000000000047f290                data_browser_cb
                0x0000000000480010                mstest_menu_cb
                0x00000000004802d0                read_userf_file
                0x0000000000481920                write_userf_file
                0x0000000000481b20                free_userf_macro_line
                0x0000000000481b70                free_userf_table_entry
                0x0000000000481c10                backup_userf
                0x0000000000481e20                restore_userf
                0x0000000000482020                contains_input
                0x0000000000482260                get_ninput
                0x0000000000482950                create_new_userf
                0x0000000000482bd0                cut_space
                0x0000000000482d70                save_AB_etc
                0x0000000000482f90                get_func_indx
                0x0000000000483010                update_userf
                0x0000000000483200                fill_userf_list
                0x0000000000483260                fill_macro_code
                0x0000000000483300                fill_AB_etc
                0x0000000000483430                mstest_item1_browser_cb
                0x00000000004834d0                mstest_item1_add_cb
                0x0000000000483590                mstest_item1_close_cb
                0x00000000004835a0                mstest_item1_go_cb
                0x0000000000483850                execute_userf
                0x00000000004850d0                create_browser_list
                0x0000000000485820                subs_regs
                0x0000000000485c60                mstest_item1_new_cb
                0x00000000004862f0                mstest_item1_delete_cb
                0x0000000000486820                mstest_item1_up_cb
                0x0000000000486950                mstest_item1_down_cb
                0x0000000000486a90                mstest_item1_input_cb
                0x0000000000486aa0                mstest_item1_input_remove_cb
                0x0000000000486c60                mstest_item1_input_up_cb
                0x0000000000486d10                mstest_item1_input_down_cb
                0x0000000000486de0                mstest_item1_func_cb
                0x0000000000487370                mstest_userfdef_close_cb
                0x0000000000487380                mstest_userfdef_browser_cb
                0x00000000004873f0                mstest_userfdef_AB_etc_cb
                0x0000000000487680                mstest_userfdef_apply_cb
                0x0000000000488000                mstest_userfdef_func_cb
                0x00000000004882e0                mstest_userfdef_macro_cb
                0x0000000000488430                mstest_userfdef_delete_cb
                0x0000000000488840                mstest_userfdef_up_cb
                0x0000000000488aa0                mstest_userfdef_down_cb
                0x0000000000488d00                switch_macro_lines
                0x0000000000488f60                delete_macro_line
                0x0000000000489330                delete_userf_line
                0x0000000000489490                switch_userf_lines
                0x00000000004895b0                delete_item1_input_line
                0x0000000000489610                switch_item1_input_lines
                0x00000000004896c0                add_macro_line
                0x0000000000489900                initialize_userf
                0x0000000000489990                db_screen_dump_cb
 .text          0x000000000048a6d0       0x10 vis/send_bbh_xyz.o
                0x000000000048a6d0                send_bbh_xyz
 .text          0x000000000048a6e0      0x220 rnpl_diff/1d/updates_f1.o
                0x000000000048a6e0                upd_f10_
                0x000000000048a890                upd_f11_
 .text          0x000000000048a900      0xaf0 rnpl_diff/2d/updates_f2.o
                0x000000000048a900                upd_f20_
                0x000000000048abe0                upd_f21_
                0x000000000048af80                upd_f22_
                0x000000000048b0f0                upd_f23_
 .text          0x000000000048b3f0     0x1ca0 rnpl_diff/3d/updates_f3.o
                0x000000000048b3f0                upd_f30_
                0x000000000048b880                upd_f31_
                0x000000000048bf10                upd_f32_
                0x000000000048c5a0                upd_f33_
                0x000000000048c840                upd_f34_
                0x000000000048cc50                upd_f35_
 .text          0x000000000048d090      0x640 vis/send_accept_sdf.o
                0x000000000048d090                send_accept_sdf_1g
                0x000000000048d320                send_accept_sdf
 .text          0x000000000048d6d0     0xf460 vis/send_gl_canvas.o
                0x000000000048d6d0                set_key_frame
                0x000000000048d950                clear_all_key_frames
                0x000000000048d9a0                clear_key_frame
                0x000000000048da30                is_key_frame
                0x000000000048da80                colormap
                0x000000000048dd20                build_cmap
                0x000000000048e0d0                set_gl_render_mode
                0x000000000048e290                create_os_cmap
                0x000000000048e790                parse_os_text
                0x000000000048ebf0                render_string
                0x000000000048ec70                render_os_stuff
                0x000000000048fa10                create_1d_gl_bbox
                0x000000000048fb80                create_23d_gl_bbox
                0x0000000000490020                create_3d_gl_grid
                0x0000000000490b90                create_points_gl_grid
                0x0000000000491260                create_2d_striped_gl_grid
                0x0000000000491380                create_1d_gl_grid
                0x0000000000491c60                view_trans
                0x0000000000492370                reset_gl_view
                0x0000000000492440                render_slice_box
                0x0000000000492aa0                clear_gl_display_lists
                0x0000000000492ae0                find_mask_grid
                0x0000000000492b90                set_amr_mask
                0x0000000000493010                send_gl_canvas
                0x0000000000494d10                find_mask_reg
                0x0000000000494f90                create_2d_gl_grid
                0x0000000000497e30                strip_to_tr
                0x0000000000498000                set_bbox
                0x0000000000498540                minmaxz
                0x0000000000498a50                send_gl_canvas_1g
                0x000000000049a6c0                set_scales
                0x000000000049aaa0                sdf_to_explorer
                0x000000000049aab0                refresh_gl_display
                0x000000000049caa0                init_xfonts
 .text          0x000000000049cb30      0x110 misc_f77/2Dclusterer.o
                0x000000000049cb30                dc_cls_2d_
 .text          0x000000000049cc40     0x7c20 misc_f77/dc_clusterer.o
                0x000000000049cc40                dagh_cls_3d_
                0x000000000049e280                cmp_clstr_
                0x00000000004a0b30                boxstack_
                0x00000000004a0d00                find_inflx_
                0x00000000004a11b0                clstr_
                0x00000000004a1270                find_split_
                0x00000000004a19b0                cmp_sig_lpl_
                0x00000000004a34c0                box_eff_
                0x00000000004a3770                l_ivls_
                0x00000000004a3800                reduce_
                0x00000000004a3a90                find_holes_
                0x00000000004a40b0                out_clstr_
                0x00000000004a47d0                error_
                0x00000000004a4810                initstack_
 .text          0x00000000004a4860      0x1e0 vis/scr_save.o
                0x00000000004a4860                scr_save
 .text          0x00000000004a4a40     0x2630 null_int.o
                0x00000000004a4a40                reverse_times
                0x00000000004a4a70                sf_null_int
                0x00000000004a6950                N_eval_f_1d
                0x00000000004a6b60                sf_ln_vt
 .text          0x00000000004a7070     0x4dd0 geod_int.o
                0x00000000004a7070                sf_gd_concat
                0x00000000004a7a80                sf_gd_concat_b
                0x00000000004ab600                get_3index_gd
                0x00000000004ab6b0                sf_gd_concat_c
 .text          0x00000000004abe40      0x870 DV_calc/DV_calc.tab.o
                0x00000000004abe40                DV_calcparse
                0x00000000004ac6a0                DV_calcerror
 .text          0x00000000004ac6b0     0x2410 DV_calc/lex.DV_calc.o
                0x00000000004ac6b0                DV_calclex
                0x00000000004ad6d0                DV_calcrestart
                0x00000000004ada30                DV_calc_switch_to_buffer
                0x00000000004adbb0                DV_calc_create_buffer
                0x00000000004add20                DV_calc_delete_buffer
                0x00000000004add80                DV_calcpush_buffer_state
                0x00000000004adf20                DV_calcpop_buffer_state
                0x00000000004adfd0                DV_calc_scan_buffer
                0x00000000004ae1e0                DV_calc_scan_string
                0x00000000004ae500                DV_calc_scan_bytes
                0x00000000004ae800                DV_calcget_lineno
                0x00000000004ae810                DV_calcget_in
                0x00000000004ae820                DV_calcget_out
                0x00000000004ae830                DV_calcget_leng
                0x00000000004ae840                DV_calcget_text
                0x00000000004ae850                DV_calcset_lineno
                0x00000000004ae860                DV_calcset_in
                0x00000000004ae870                DV_calcset_out
                0x00000000004ae880                DV_calcget_debug
                0x00000000004ae890                DV_calcset_debug
                0x00000000004ae8a0                DV_calclex_destroy
                0x00000000004ae940                DV_calcalloc
                0x00000000004ae950                DV_calcrealloc
                0x00000000004ae960                DV_calcfree
                0x00000000004ae970                DV_calcwrap
                0x00000000004aea00                my_DV_calcinput
                0x00000000004aea30                DV_calc_flush_buffer
 .text          0x00000000004aeac0     0x13f0 DV_calc/parse.o
                0x00000000004aeac0                alloc_pte
                0x00000000004aeb30                free_pte
                0x00000000004aeb50                add_stmnt
                0x00000000004aeb80                free_stmnt_list
                0x00000000004aebe0                get_tmp_var
                0x00000000004aec30                is_tmp_var
                0x00000000004aec60                free_tmp_var
                0x00000000004aeca0                clear_sym_tab
                0x00000000004aece0                read_sym
                0x00000000004aed80                remove_sym
                0x00000000004aee20                eval_stmnt_list
                0x00000000004aef40                eval_stmnt
                0x00000000004afdd0                set_sym
 .text          0x00000000004afeb0     0x4950 /usr/local/intel/lib/libbbhutil.a(bbhutil.o)
                0x00000000004afeb0                lowcase
                0x00000000004aff10                strcmp_nc
                0x00000000004affd0                rdvcpy
                0x00000000004b0080                rdvprod
                0x00000000004b0130                rivprod
                0x00000000004b0280                rivcpy
                0x00000000004b0330                rdvramp
                0x00000000004b0430                rdvaddc
                0x00000000004b07b0                rdvupdatemean
                0x00000000004b0bd0                l2norm
                0x00000000004b0ce0                rdvmin
                0x00000000004b0dd0                rdvmax
                0x00000000004b0ec0                vec_alloc
                0x00000000004b0ef0                ivec_alloc
                0x00000000004b0f20                cvec_alloc
                0x00000000004b0f50                vec_alloc_n
                0x00000000004b0fb0                ivec_alloc_n
                0x00000000004b1010                cvec_alloc_n
                0x00000000004b1070                read_ascii_int
                0x00000000004b11b0                read_ascii_double
                0x00000000004b12f0                read_ascii_string
                0x00000000004b14c0                read_ascii_ivec
                0x00000000004b14d0                read_ascii_fvec
                0x00000000004b16b0                sget_fvec_param
                0x00000000004b16c0                sget_ivec_param
                0x00000000004b16d0                sget_int_param
                0x00000000004b16e0                sget_real_param
                0x00000000004b16f0                sget_str_param
                0x00000000004b1700                get_fvec_param
                0x00000000004b19d0                get_ivec_param
                0x00000000004b1ca0                get_int_param
                0x00000000004b1f70                get_real_param
                0x00000000004b2240                get_str_param
                0x00000000004b2510                get_int_param_v
                0x00000000004b2800                get_real_param_v
                0x00000000004b2af0                get_str_param_v
                0x00000000004b2de0                is_param_assigned_in_file
                0x00000000004b2f00                is_param_assigned_in_file_nc
                0x00000000004b3020                is_param_assigned_in_file_0
                0x00000000004b3160                get_param
                0x00000000004b34a0                get_param_nc
                0x00000000004b37e0                get_param_nc_v
                0x00000000004b3b30                do_ivec
                0x00000000004b40c0                fixup_ivec
                0x00000000004b4150                fixup_fvec
                0x00000000004b4370                size_fvec
                0x00000000004b43b0                get_fvec
                0x00000000004b4480                gft_make_bbox
                0x00000000004b45b0                gft_make_full_func_name
                0x00000000004b4720                gft_close
                0x00000000004b4730                gft_close_all
                0x00000000004b4740                gft_read_id_str_p
                0x00000000004b4750                gft_read_id_int_p
                0x00000000004b4760                gft_read_id_float_p
                0x00000000004b4770                gft_read_2idata
                0x00000000004b4780                gft_read_1idata
                0x00000000004b4790                gft_read_idata
                0x00000000004b47a0                gft_write_id_str_p
                0x00000000004b47b0                gft_write_id_int_p
                0x00000000004b47c0                gft_write_id_float_p
                0x00000000004b47d0                gft_write_2idata
                0x00000000004b47e0                gft_write_1idata
                0x00000000004b47f0                gft_write_idata
 .text          0x00000000004b4800      0x470 /usr/local/intel/lib/libbbhutil.a(cliser.o)
                0x00000000004b4800                ser0_start
                0x00000000004b4ad0                ser0_serve_block
                0x00000000004b4b20                ser0_connect
                0x00000000004b4bf0                checkenv
                0x00000000004b4c30                ser0_stop
 .text          0x00000000004b4c70     0xd09c /usr/local/intel/lib/libbbhutil.a(sdf.o)
                0x00000000004b4c70                gsfipvec_alloc
                0x00000000004b4cd8                new_dynarray
                0x00000000004b4d6e                delete_dynarray
                0x00000000004b4dac                add_item
                0x00000000004b4eb4                get_item
                0x00000000004b4f18                dynarray_len
                0x00000000004b4f46                new_gsfiarray
                0x00000000004b4fd4                delete_gsfiarray
                0x00000000004b5054                add_gsfiitem
                0x00000000004b5150                get_gsfiitem
                0x00000000004b523a                gsfiarray_len
                0x00000000004b5268                gsfi_insert
                0x00000000004b5404                gsfi_new
                0x00000000004b54cc                gsfi_delete
                0x00000000004b55b8                gsfd_parent
                0x00000000004b56ac                gsfd_successor
                0x00000000004b5702                gsfd_rotate_r
                0x00000000004b580e                gsfd_rotate_l
                0x00000000004b591a                gsfd_insert
                0x00000000004b59e4                gsfd_remove
                0x00000000004b5bc8                gsfd_find
                0x00000000004b5c76                gsfd_new
                0x00000000004b5d46                gsfd_delete
                0x00000000004b5e10                gsfd_close
                0x00000000004b5e48                gsfd_close_all
                0x00000000004b5e8c                gsfd_file_changed
                0x00000000004b6076                gsfd_make_index
                0x00000000004b656c                gft_make_index
                0x00000000004b65a4                gft_set_single_sdf
                0x00000000004b660a                gft_set_multi_sdf
                0x00000000004b664e                gft_set_single
                0x00000000004b6668                gft_set_multi
                0x00000000004b6674                gft_make_sdf_name
                0x00000000004b68f6                gft_file_changed
                0x00000000004b696c                gft_create_sdf_stream
                0x00000000004b6d0c                gft_open_sdf_stream
                0x00000000004b70fe                mid_write_sdf_stream
                0x00000000004b720a                mid_read_sdf_stream
                0x00000000004b739c                low_write_sdf_stream
                0x00000000004b80e6                low_read_sdf_stream
                0x00000000004b8ec8                gft_send_sdf_stream
                0x00000000004b91e6                gft_send_sdf_stream_bbox
                0x00000000004b9424                gft_send_sdf_stream_brief
                0x00000000004b9662                gft_sendm_sdf_stream
                0x00000000004b9a5e                gft_sendm_sdf_stream_bbox
                0x00000000004b9db2                gft_sendm_sdf_stream_brief
                0x00000000004ba0fe                gft_write_sdf_stream
                0x00000000004ba262                gft_write_sdf_stream_bbox
                0x00000000004ba354                gft_write_sdf_stream_brief
                0x00000000004ba464                gft_writem_sdf_stream
                0x00000000004ba606                gft_writem_sdf_stream_bbox
                0x00000000004ba77e                gft_writem_sdf_stream_brief
                0x00000000004ba8b6                gft_read_sdf_stream
                0x00000000004babf2                gft_read_sdf_stream_brief
                0x00000000004baee0                gft_read_sdf_rank
                0x00000000004bb362                gft_read_sdf_shape
                0x00000000004bb80c                gft_read_sdf_bbox
                0x00000000004bbcba                gft_read_sdf_name
                0x00000000004bc160                gft_read_sdf_ntlevs
                0x00000000004bc2ee                gft_read_sdf_full
                0x00000000004bca7c                gft_read_sdf_brief
                0x00000000004bcf26                gft_close_sdf_stream
                0x00000000004bcf98                gft_close_all_sdf
                0x00000000004bcfae                gft_extract_sdf
                0x00000000004bd6ea                GFT_extract2
                0x00000000004be1b8                gft_write_id_gf
                0x00000000004be206                gft_write_id_int
                0x00000000004be408                gft_write_id_float_old
                0x00000000004be650                gft_write_id_float
                0x00000000004be898                gft_write_id_str
                0x00000000004beaec                gft_read_id_gf
                0x00000000004bebaa                gft_read_id_int
                0x00000000004befdc                gft_read_id_float
                0x00000000004bf40e                gft_read_id_str
                0x00000000004bf840                gft_read_rank
                0x00000000004bf880                gft_read_shape
                0x00000000004bf8c0                gft_read_bbox
                0x00000000004bf900                gft_read_name
                0x00000000004bf940                gft_read_full
                0x00000000004bf9cc                gft_out_slice
                0x00000000004bf9f8                gft_read_brief
                0x00000000004bfa38                gft_out_full
                0x00000000004bfe62                gft_out_bbox
                0x00000000004bffcc                gft_out_brief
                0x00000000004c0112                gft_out
                0x00000000004c0162                gft_out_set_bbox
                0x00000000004c01ce                gft_outm
                0x00000000004c023a                gft_outm_brief
                0x00000000004c03d2                gft_outm_bbox
                0x00000000004c058a                gft_outm_full
                0x00000000004c0754                gft_verify_file
                0x00000000004c0a2a                gft_open_sdf_file
                0x00000000004c0b36                gft_is_sdf_file
                0x00000000004c0b9a                gft_out_part_xyz
                0x00000000004c12d8                gft_out_part_xyzf
                0x00000000004c18ba                gft_bbh_port
                0x00000000004c1980                gft_dv_port
                0x00000000004c1a62                gft_dv_standard_init
                0x00000000004c1cde                gft_dv_standard_clean_up
 *fill*         0x00000000004c1d0c        0x4 
 .text          0x00000000004c1d10     0x1af0 /usr/local/intel/lib/libbbhutil.a(gpar.tab.o)
                0x00000000004c1d10                new_ivel_list
                0x00000000004c1d50                new_fvel_list
                0x00000000004c1d90                new_value_list
                0x00000000004c1dd0                sget_param
                0x00000000004c2b60                gparparse
 .text          0x00000000004c3800     0x2770 /usr/local/intel/lib/libbbhutil.a(lex.gpar.o)
                0x00000000004c3800                gparlex
                0x00000000004c4bd0                gparrestart
                0x00000000004c4f40                gparwrap
                0x00000000004c4f50                gpar_switch_to_buffer
                0x00000000004c50d0                gpar_create_buffer
                0x00000000004c5250                gpar_delete_buffer
                0x00000000004c52b0                gparpush_buffer_state
                0x00000000004c5450                gparpop_buffer_state
                0x00000000004c5500                gpar_scan_buffer
                0x00000000004c5700                gpar_scan_string
                0x00000000004c5a20                gpar_scan_bytes
                0x00000000004c5d10                gparget_lineno
                0x00000000004c5d20                gparget_in
                0x00000000004c5d30                gparget_out
                0x00000000004c5d40                gparget_leng
                0x00000000004c5d50                gparget_text
                0x00000000004c5d60                gparset_lineno
                0x00000000004c5d70                gparset_in
                0x00000000004c5d80                gparset_out
                0x00000000004c5d90                gparget_debug
                0x00000000004c5da0                gparset_debug
                0x00000000004c5db0                gparlex_destroy
                0x00000000004c5e50                gparalloc
                0x00000000004c5e60                gparrealloc
                0x00000000004c5e70                gparfree
                0x00000000004c5e80                my_gparinput
                0x00000000004c5ed0                gpar_flush_buffer
                0x00000000004c5f60                gparerror
 .text          0x00000000004c5f70     0x3910 /usr/local/intel/lib/libutilio.a(ctoirang.o)
                0x00000000004c5f70                chkgrp_
                0x00000000004c5ff0                cload_
                0x00000000004c6010                ctoi_
                0x00000000004c6110                skblnk_
                0x00000000004c6150                ggroup_
                0x00000000004c6340                inptiv_
                0x00000000004c7290                grange_
                0x00000000004c75c0                gettok_
                0x00000000004c77c0                psexpr_
                0x00000000004c7a90                livrmp_
                0x00000000004c7b00                makind_
                0x00000000004c7cc0                ixspan_
                0x00000000004c7da0                itoc_
                0x00000000004c7e80                readiv_
                0x00000000004c8430                rdivnl_
                0x00000000004c8970                irdivn_
                0x00000000004c8e40                irdiv_
                0x00000000004c9360                loc_ivramp_
                0x00000000004c93d0                gtok_
                0x00000000004c9520                catsqz_
                0x00000000004c9820                indlnb_
                0x00000000004c9860                indfnb_
 .text          0x00000000004c9880      0x650 /usr/local/intel/lib/libutilio.a(utilexplorer_c.o)
                0x00000000004c9880                spherical_to_XYZ3DData0
                0x00000000004c9de0                fuzzeq
                0x00000000004c9e00                l_dvdump
 .text          0x00000000004c9ed0      0x570 /opt/intel/composer_xe_2013.3.163/compiler/lib/intel64/libimf.a(atan2.o)
                0x00000000004c9ed0                atan2
 .text          0x00000000004ca440       0x30 /opt/intel/composer_xe_2013.3.163/compiler/lib/intel64/libimf.a(atan_stub.o)
                0x00000000004ca440                atan
 .text          0x00000000004ca470       0x30 /opt/intel/composer_xe_2013.3.163/compiler/lib/intel64/libimf.a(cbrt_stub.o)
                0x00000000004ca470                cbrt
 .text          0x00000000004ca4a0       0x40 /opt/intel/composer_xe_2013.3.163/compiler/lib/intel64/libimf.a(ceilf_stub.o)
                0x00000000004ca4a0                ceilf
 .text          0x00000000004ca4e0       0x40 /opt/intel/composer_xe_2013.3.163/compiler/lib/intel64/libimf.a(ceil_stub.o)
                0x00000000004ca4e0                ceil
 .text          0x00000000004ca520       0x40 /opt/intel/composer_xe_2013.3.163/compiler/lib/intel64/libimf.a(cos_stub.o)
                0x00000000004ca520                cos
 .text          0x00000000004ca560       0x30 /opt/intel/composer_xe_2013.3.163/compiler/lib/intel64/libimf.a(exp2f_stub.o)
                0x00000000004ca560                exp2f
 .text          0x00000000004ca590       0x30 /opt/intel/composer_xe_2013.3.163/compiler/lib/intel64/libimf.a(exp_stub.o)
                0x00000000004ca590                exp
 .text          0x00000000004ca5c0       0x40 /opt/intel/composer_xe_2013.3.163/compiler/lib/intel64/libimf.a(floorf_stub.o)
                0x00000000004ca5c0                floorf
 .text          0x00000000004ca600       0x40 /opt/intel/composer_xe_2013.3.163/compiler/lib/intel64/libimf.a(floor_stub.o)
                0x00000000004ca600                floor
 .text          0x00000000004ca640       0x80 /opt/intel/composer_xe_2013.3.163/compiler/lib/intel64/libimf.a(f__powi4i4.o)
                0x00000000004ca640                __powi4i4
 .text          0x00000000004ca6c0      0x240 /opt/intel/composer_xe_2013.3.163/compiler/lib/intel64/libimf.a(isfinite.o)
                0x00000000004ca6c0                isfinitel
                0x00000000004ca6f0                __isfinitel
                0x00000000004ca720                isfinitef
                0x00000000004ca740                __isfinitef
                0x00000000004ca760                isfinite
                0x00000000004ca780                __isfinite
                0x00000000004ca7a0                isfinited
                0x00000000004ca7c0                __isfinited
                0x00000000004ca7e0                finitel
                0x00000000004ca810                __finitel
                0x00000000004ca840                finitef
                0x00000000004ca860                __finitef
                0x00000000004ca880                finite
                0x00000000004ca8a0                __finite
                0x00000000004ca8c0                finited
                0x00000000004ca8e0                __finited
 .text          0x00000000004ca900      0x820 /opt/intel/composer_xe_2013.3.163/compiler/lib/intel64/libimf.a(libm_error.o)
                0x00000000004cabb0                __libm_copy_value
                0x00000000004cac50                __libm_error_support
                0x00000000004cb090                __libm_setusermatherrl
                0x00000000004cb0c0                __libm_setusermatherr
                0x00000000004cb0f0                __libm_setusermatherrf
 .text          0x00000000004cb120      0x380 /opt/intel/composer_xe_2013.3.163/compiler/lib/intel64/libimf.a(libm_sse2_sincos.o)
                0x00000000004cb120                __libm_sse2_sincos
 .text          0x00000000004cb4a0       0x30 /opt/intel/composer_xe_2013.3.163/compiler/lib/intel64/libimf.a(log10f_stub.o)
                0x00000000004cb4a0                log10f
 .text          0x00000000004cb4d0       0x30 /opt/intel/composer_xe_2013.3.163/compiler/lib/intel64/libimf.a(log10_stub.o)
                0x00000000004cb4d0                log10
 .text          0x00000000004cb500       0x30 /opt/intel/composer_xe_2013.3.163/compiler/lib/intel64/libimf.a(log_stub.o)
                0x00000000004cb500                log
 .text          0x00000000004cb530       0x10 /opt/intel/composer_xe_2013.3.163/compiler/lib/intel64/libimf.a(matherrf.o)
                0x00000000004cb530                matherrf
 .text          0x00000000004cb540       0x10 /opt/intel/composer_xe_2013.3.163/compiler/lib/intel64/libimf.a(matherrl.o)
                0x00000000004cb540                matherrl
 .text          0x00000000004cb550       0x10 /opt/intel/composer_xe_2013.3.163/compiler/lib/intel64/libimf.a(matherr.o)
                0x00000000004cb550                matherr
 .text          0x00000000004cb560       0x30 /opt/intel/composer_xe_2013.3.163/compiler/lib/intel64/libimf.a(pow_stub.o)
                0x00000000004cb560                pow
 .text          0x00000000004cb590       0x30 /opt/intel/composer_xe_2013.3.163/compiler/lib/intel64/libimf.a(sincosf_stub.o)
                0x00000000004cb590                sincosf
 .text          0x00000000004cb5c0       0x30 /opt/intel/composer_xe_2013.3.163/compiler/lib/intel64/libimf.a(sincos_stub.o)
                0x00000000004cb5c0                sincos
 .text          0x00000000004cb5f0       0x40 /opt/intel/composer_xe_2013.3.163/compiler/lib/intel64/libimf.a(sin_stub.o)
                0x00000000004cb5f0                sin
 .text          0x00000000004cb630       0x30 /opt/intel/composer_xe_2013.3.163/compiler/lib/intel64/libimf.a(tan_stub.o)
                0x00000000004cb630                tan
 .text          0x00000000004cb660      0x2a0 /opt/intel/composer_xe_2013.3.163/compiler/lib/intel64/libimf.a(atan_ct.o)
                0x00000000004cb660                atan.L
 .text          0x00000000004cb900      0x210 /opt/intel/composer_xe_2013.3.163/compiler/lib/intel64/libimf.a(atan_gen.o)
                0x00000000004cb900                atan.A
 .text          0x00000000004cbb10      0x260 /opt/intel/composer_xe_2013.3.163/compiler/lib/intel64/libimf.a(cbrt_ct.o)
                0x00000000004cbb10                cbrt.L
 .text          0x00000000004cbd70      0x1e0 /opt/intel/composer_xe_2013.3.163/compiler/lib/intel64/libimf.a(cbrt_gen.o)
                0x00000000004cbd70                cbrt.A
 .text          0x00000000004cbf50       0x80 /opt/intel/composer_xe_2013.3.163/compiler/lib/intel64/libimf.a(ceil_ct.o)
                0x00000000004cbf50                ceil.L
 .text          0x00000000004cbfd0       0x80 /opt/intel/composer_xe_2013.3.163/compiler/lib/intel64/libimf.a(ceilf_ct.o)
                0x00000000004cbfd0                ceilf.L
 .text          0x00000000004cc050       0xc0 /opt/intel/composer_xe_2013.3.163/compiler/lib/intel64/libimf.a(ceilf_gen.o)
                0x00000000004cc050                ceilf.A
 .text          0x00000000004cc110       0x10 /opt/intel/composer_xe_2013.3.163/compiler/lib/intel64/libimf.a(ceilf_pnr.o)
                0x00000000004cc110                ceilf.N
 .text          0x00000000004cc120       0xf0 /opt/intel/composer_xe_2013.3.163/compiler/lib/intel64/libimf.a(ceil_gen.o)
                0x00000000004cc120                ceil.A
 .text          0x00000000004cc210       0x10 /opt/intel/composer_xe_2013.3.163/compiler/lib/intel64/libimf.a(ceil_pnr.o)
                0x00000000004cc210                ceil.N
 .text          0x00000000004cc220      0x660 /opt/intel/composer_xe_2013.3.163/compiler/lib/intel64/libimf.a(cos_ct.o)
                0x00000000004cc220                cos.L
 .text          0x00000000004cc880      0x660 /opt/intel/composer_xe_2013.3.163/compiler/lib/intel64/libimf.a(cos_gen.o)
                0x00000000004cc880                cos.A
 .text          0x00000000004ccee0      0x640 /opt/intel/composer_xe_2013.3.163/compiler/lib/intel64/libimf.a(cos_pnr.o)
                0x00000000004ccee0                cos.N
 .text          0x00000000004cd520      0x1f0 /opt/intel/composer_xe_2013.3.163/compiler/lib/intel64/libimf.a(exp2f_ct.o)
                0x00000000004cd520                exp2f.L
 .text          0x00000000004cd710      0x330 /opt/intel/composer_xe_2013.3.163/compiler/lib/intel64/libimf.a(exp2f_gen.o)
                0x00000000004cd710                exp2f.A
 .text          0x00000000004cda40      0x300 /opt/intel/composer_xe_2013.3.163/compiler/lib/intel64/libimf.a(exp_ct.o)
                0x00000000004cda40                exp.L
 .text          0x00000000004cdd40      0x300 /opt/intel/composer_xe_2013.3.163/compiler/lib/intel64/libimf.a(exp_gen.o)
                0x00000000004cdd40                exp.A
 .text          0x00000000004ce040       0x80 /opt/intel/composer_xe_2013.3.163/compiler/lib/intel64/libimf.a(floor_ct.o)
                0x00000000004ce040                floor.L
 .text          0x00000000004ce0c0       0x80 /opt/intel/composer_xe_2013.3.163/compiler/lib/intel64/libimf.a(floorf_ct.o)
                0x00000000004ce0c0                floorf.L
 .text          0x00000000004ce140       0xc0 /opt/intel/composer_xe_2013.3.163/compiler/lib/intel64/libimf.a(floorf_gen.o)
                0x00000000004ce140                floorf.A
 .text          0x00000000004ce200       0x10 /opt/intel/composer_xe_2013.3.163/compiler/lib/intel64/libimf.a(floorf_pnr.o)
                0x00000000004ce200                floorf.N
 .text          0x00000000004ce210       0xf0 /opt/intel/composer_xe_2013.3.163/compiler/lib/intel64/libimf.a(floor_gen.o)
                0x00000000004ce210                floor.A
 .text          0x00000000004ce300       0x10 /opt/intel/composer_xe_2013.3.163/compiler/lib/intel64/libimf.a(floor_pnr.o)
                0x00000000004ce300                floor.N
 .text          0x00000000004ce310      0x530 /opt/intel/composer_xe_2013.3.163/compiler/lib/intel64/libimf.a(libm_reduce_pio2.o)
                0x00000000004ce310                __libm_reduce_pio2d
 .text          0x00000000004ce840      0x2b0 /opt/intel/composer_xe_2013.3.163/compiler/lib/intel64/libimf.a(log10_ct.o)
                0x00000000004ce840                log10.L
 .text          0x00000000004ceaf0      0x1d0 /opt/intel/composer_xe_2013.3.163/compiler/lib/intel64/libimf.a(log10f_ct.o)
                0x00000000004ceaf0                log10f.L
 .text          0x00000000004cecc0      0x250 /opt/intel/composer_xe_2013.3.163/compiler/lib/intel64/libimf.a(log10f_gen.o)
                0x00000000004cecc0                log10f.A
 .text          0x00000000004cef10      0x2b0 /opt/intel/composer_xe_2013.3.163/compiler/lib/intel64/libimf.a(log10_gen.o)
                0x00000000004cef10                log10.A
 .text          0x00000000004cf1c0      0x270 /opt/intel/composer_xe_2013.3.163/compiler/lib/intel64/libimf.a(log_ct.o)
                0x00000000004cf1c0                log.L
 .text          0x00000000004cf430      0x280 /opt/intel/composer_xe_2013.3.163/compiler/lib/intel64/libimf.a(log_gen.o)
                0x00000000004cf430                log.A
 .text          0x00000000004cf6b0     0x1010 /opt/intel/composer_xe_2013.3.163/compiler/lib/intel64/libimf.a(pow_ct.o)
                0x00000000004cf6b0                pow.L
 .text          0x00000000004d06c0      0xbb0 /opt/intel/composer_xe_2013.3.163/compiler/lib/intel64/libimf.a(pow_gen.o)
                0x00000000004d06c0                pow.A
 .text          0x00000000004d1270      0x6f0 /opt/intel/composer_xe_2013.3.163/compiler/lib/intel64/libimf.a(sincos_ct.o)
                0x00000000004d1270                sincos.L
 .text          0x00000000004d1960      0x240 /opt/intel/composer_xe_2013.3.163/compiler/lib/intel64/libimf.a(sincosf_ct.o)
                0x00000000004d1960                sincosf.L
 .text          0x00000000004d1ba0      0x210 /opt/intel/composer_xe_2013.3.163/compiler/lib/intel64/libimf.a(sincosf_gen.o)
                0x00000000004d1ba0                sincosf.A
 .text          0x00000000004d1db0      0x3d0 /opt/intel/composer_xe_2013.3.163/compiler/lib/intel64/libimf.a(sincos_gen.o)
                0x00000000004d1db0                sincos.A
 .text          0x00000000004d2180      0x680 /opt/intel/composer_xe_2013.3.163/compiler/lib/intel64/libimf.a(sin_ct.o)
                0x00000000004d2180                sin.L
 .text          0x00000000004d2800      0x670 /opt/intel/composer_xe_2013.3.163/compiler/lib/intel64/libimf.a(sin_gen.o)
                0x00000000004d2800                sin.A
 .text          0x00000000004d2e70      0x650 /opt/intel/composer_xe_2013.3.163/compiler/lib/intel64/libimf.a(sin_pnr.o)
                0x00000000004d2e70                sin.N
 .text          0x00000000004d34c0      0x840 /opt/intel/composer_xe_2013.3.163/compiler/lib/intel64/libimf.a(tan_ct.o)
                0x00000000004d34c0                tan.L
 .text          0x00000000004d3d00      0x840 /opt/intel/composer_xe_2013.3.163/compiler/lib/intel64/libimf.a(tan_gen.o)
                0x00000000004d3d00                tan.A
 .text          0x00000000004d4540      0x670 /d/bh0/home/matt/autoconf/DV/DVCliser//libDVCliser.a(DVCliser.o)
                0x00000000004d4540                ser0_start_DV
                0x00000000004d47b0                ser0_serve_block_DV
                0x00000000004d4800                ser0_comm_DV
                0x00000000004d4900                ser0_ping_DV
                0x00000000004d49b0                ser0_connect_DV
                0x00000000004d4a60                dump_hostent_DV
                0x00000000004d4b70                ser0_stop_DV
 .text          0x00000000004d4bb0      0x2a0 /opt/intel/composer_xe_2013.3.163/compiler/lib/intel64/libimf.a(acosdf.o)
                0x00000000004d4bb0                acosdf
 .text          0x00000000004d4e50       0x30 /opt/intel/composer_xe_2013.3.163/compiler/lib/intel64/libimf.a(acosdq_stub.o)
                0x00000000004d4e50                __acosdq
 .text          0x00000000004d4e80       0x30 /opt/intel/composer_xe_2013.3.163/compiler/lib/intel64/libimf.a(acosd_stub.o)
                0x00000000004d4e80                acosd
 .text          0x00000000004d4eb0       0x30 /opt/intel/composer_xe_2013.3.163/compiler/lib/intel64/libimf.a(acoshq_stub.o)
                0x00000000004d4eb0                __acoshq
 .text          0x00000000004d4ee0       0x30 /opt/intel/composer_xe_2013.3.163/compiler/lib/intel64/libimf.a(acosq_stub.o)
                0x00000000004d4ee0                __acosq
 .text          0x00000000004d4f10      0x280 /opt/intel/composer_xe_2013.3.163/compiler/lib/intel64/libimf.a(asindf.o)
                0x00000000004d4f10                asindf
 .text          0x00000000004d5190       0x30 /opt/intel/composer_xe_2013.3.163/compiler/lib/intel64/libimf.a(asindq_stub.o)
                0x00000000004d5190                __asindq
 .text          0x00000000004d51c0       0x30 /opt/intel/composer_xe_2013.3.163/compiler/lib/intel64/libimf.a(asind_stub.o)
                0x00000000004d51c0                asind
 .text          0x00000000004d51f0       0x30 /opt/intel/composer_xe_2013.3.163/compiler/lib/intel64/libimf.a(asinhq_stub.o)
                0x00000000004d51f0                __asinhq
 .text          0x00000000004d5220       0x30 /opt/intel/composer_xe_2013.3.163/compiler/lib/intel64/libimf.a(asinq_stub.o)
                0x00000000004d5220                __asinq
 .text          0x00000000004d5250       0x60 /opt/intel/composer_xe_2013.3.163/compiler/lib/intel64/libimf.a(atan2dq_stub.o)
                0x00000000004d5250                __atan2dq
                0x00000000004d5280                __atand2q
 .text          0x00000000004d52b0       0x30 /opt/intel/composer_xe_2013.3.163/compiler/lib/intel64/libimf.a(atan2q_stub.o)
                0x00000000004d52b0                __atan2q
 .text          0x00000000004d52e0      0x220 /opt/intel/composer_xe_2013.3.163/compiler/lib/intel64/libimf.a(atandf.o)
                0x00000000004d52e0                atandf
 .text          0x00000000004d5500      0x4f0 /opt/intel/composer_xe_2013.3.163/compiler/lib/intel64/libimf.a(atand.o)
                0x00000000004d5500                atand
 .text          0x00000000004d59f0       0x30 /opt/intel/composer_xe_2013.3.163/compiler/lib/intel64/libimf.a(atandq_stub.o)
                0x00000000004d59f0                __atandq
 .text          0x00000000004d5a20       0x30 /opt/intel/composer_xe_2013.3.163/compiler/lib/intel64/libimf.a(atanhq_stub.o)
                0x00000000004d5a20                __atanhq
 .text          0x00000000004d5a50       0x30 /opt/intel/composer_xe_2013.3.163/compiler/lib/intel64/libimf.a(atanq_stub.o)
                0x00000000004d5a50                __atanq
 .text          0x00000000004d5a80       0x20 /opt/intel/composer_xe_2013.3.163/compiler/lib/intel64/libimf.a(cabsq.o)
                0x00000000004d5a80                __cabsq
 .text          0x00000000004d5aa0       0x30 /opt/intel/composer_xe_2013.3.163/compiler/lib/intel64/libimf.a(cbrtq_stub.o)
                0x00000000004d5aa0                __cbrtq
 .text          0x00000000004d5ad0      0x230 /opt/intel/composer_xe_2013.3.163/compiler/lib/intel64/libimf.a(ccoshq.o)
                0x00000000004d5ad0                __ccoshq
 .text          0x00000000004d5d00      0x620 /opt/intel/composer_xe_2013.3.163/compiler/lib/intel64/libimf.a(ccosq.o)
                0x00000000004d5d00                __ccosq
 .text          0x00000000004d6320      0x240 /opt/intel/composer_xe_2013.3.163/compiler/lib/intel64/libimf.a(ceilq.o)
                0x00000000004d6320                __ceilq
 .text          0x00000000004d6560       0x80 /opt/intel/composer_xe_2013.3.163/compiler/lib/intel64/libimf.a(cexp10f.o)
                0x00000000004d6560                cexp10f
 .text          0x00000000004d65e0      0x3b0 /opt/intel/composer_xe_2013.3.163/compiler/lib/intel64/libimf.a(cexp10.o)
                0x00000000004d65e0                cexp10
 .text          0x00000000004d6990      0x1e0 /opt/intel/composer_xe_2013.3.163/compiler/lib/intel64/libimf.a(cexp10q.o)
                0x00000000004d6990                __cexp10q
 .text          0x00000000004d6b70      0x6b0 /opt/intel/composer_xe_2013.3.163/compiler/lib/intel64/libimf.a(cexpq.o)
                0x00000000004d6b70                __cexpq
 .text          0x00000000004d7220      0x180 /opt/intel/composer_xe_2013.3.163/compiler/lib/intel64/libimf.a(clog10q.o)
                0x00000000004d7220                __clog10q
 .text          0x00000000004d73a0       0xa0 /opt/intel/composer_xe_2013.3.163/compiler/lib/intel64/libimf.a(clogq.o)
                0x00000000004d73a0                __clogq
 .text          0x00000000004d7440       0x30 /opt/intel/composer_xe_2013.3.163/compiler/lib/intel64/libimf.a(cosdf_stub.o)
                0x00000000004d7440                cosdf
 .text          0x00000000004d7470       0x30 /opt/intel/composer_xe_2013.3.163/compiler/lib/intel64/libimf.a(cosdq_stub.o)
                0x00000000004d7470                __cosdq
 .text          0x00000000004d74a0       0x30 /opt/intel/composer_xe_2013.3.163/compiler/lib/intel64/libimf.a(cosd_stub.o)
                0x00000000004d74a0                cosd
 .text          0x00000000004d74d0       0x30 /opt/intel/composer_xe_2013.3.163/compiler/lib/intel64/libimf.a(coshq_stub.o)
                0x00000000004d74d0                __coshq
 .text          0x00000000004d7500       0x30 /opt/intel/composer_xe_2013.3.163/compiler/lib/intel64/libimf.a(cosq_stub.o)
                0x00000000004d7500                __cosq
 .text          0x00000000004d7530       0x30 /opt/intel/composer_xe_2013.3.163/compiler/lib/intel64/libimf.a(cotdf_stub.o)
                0x00000000004d7530                cotdf
 .text          0x00000000004d7560       0x30 /opt/intel/composer_xe_2013.3.163/compiler/lib/intel64/libimf.a(cotdq_stub.o)
                0x00000000004d7560                __cotdq
 .text          0x00000000004d7590       0x30 /opt/intel/composer_xe_2013.3.163/compiler/lib/intel64/libimf.a(cotd_stub.o)
                0x00000000004d7590                cotd
 .text          0x00000000004d75c0      0x4a0 /opt/intel/composer_xe_2013.3.163/compiler/lib/intel64/libimf.a(cotf.o)
                0x00000000004d75c0                cotf
 .text          0x00000000004d7a60      0x480 /opt/intel/composer_xe_2013.3.163/compiler/lib/intel64/libimf.a(cot.o)
                0x00000000004d7a60                cot
 .text          0x00000000004d7ee0       0x30 /opt/intel/composer_xe_2013.3.163/compiler/lib/intel64/libimf.a(cotq_stub.o)
                0x00000000004d7ee0                __cotq
 .text          0x00000000004d7f10      0x2b0 /opt/intel/composer_xe_2013.3.163/compiler/lib/intel64/libimf.a(cpowq.o)
                0x00000000004d7f10                __cpowq
 .text          0x00000000004d81c0      0x280 /opt/intel/composer_xe_2013.3.163/compiler/lib/intel64/libimf.a(csinhq.o)
                0x00000000004d81c0                __csinhq
 .text          0x00000000004d8440      0x610 /opt/intel/composer_xe_2013.3.163/compiler/lib/intel64/libimf.a(csinq.o)
                0x00000000004d8440                __csinq
 .text          0x00000000004d8a50     0x1700 /opt/intel/composer_xe_2013.3.163/compiler/lib/intel64/libimf.a(csqrtq.o)
                0x00000000004d8a50                __csqrtq
 .text          0x00000000004da150      0x680 /opt/intel/composer_xe_2013.3.163/compiler/lib/intel64/libimf.a(ctanhq.o)
                0x00000000004da150                __ctanhq
 .text          0x00000000004da7d0      0x900 /opt/intel/composer_xe_2013.3.163/compiler/lib/intel64/libimf.a(ctanq.o)
                0x00000000004da7d0                __ctanq
 .text          0x00000000004db0d0     0x27f0 /opt/intel/composer_xe_2013.3.163/compiler/lib/intel64/libimf.a(dpml_ux_bessel.o)
                0x00000000004dbce0                __j0q
                0x00000000004dc0e0                __j1q
                0x00000000004dc580                __jnq
                0x00000000004dcac0                __y0q
                0x00000000004dcec0                __y1q
                0x00000000004dd370                __ynq
 .text          0x00000000004dd8c0      0x540 /opt/intel/composer_xe_2013.3.163/compiler/lib/intel64/libimf.a(dpml_ux_erf.o)
                0x00000000004dd8c0                __erfq
                0x00000000004ddb30                __erfcq
 .text          0x00000000004dde00      0x4c0 /opt/intel/composer_xe_2013.3.163/compiler/lib/intel64/libimf.a(dpml_ux_exp.o)
                0x00000000004dde00                __dpml_ux_exp__
                0x00000000004de020                __dpml_ux_hyperbolic__
 .text          0x00000000004de2c0      0x350 /opt/intel/composer_xe_2013.3.163/compiler/lib/intel64/libimf.a(dpml_ux_int.o)
                0x00000000004de2c0                __dpml_ux_rnd_to_int__
                0x00000000004de550                __nintq
 .text          0x00000000004de610      0xdb0 /opt/intel/composer_xe_2013.3.163/compiler/lib/intel64/libimf.a(dpml_ux_lgamma.o)
                0x00000000004de610                __lgammaq
                0x00000000004deab0                __gammaq
                0x00000000004def50                ____lgammaq
 .text          0x00000000004df3c0      0x120 /opt/intel/composer_xe_2013.3.163/compiler/lib/intel64/libimf.a(dpml_ux_log.o)
                0x00000000004df3c0                __dpml_ux_log_poly__
                0x00000000004df400                __dpml_ux_log__
 .text          0x00000000004df4e0     0x1a80 /opt/intel/composer_xe_2013.3.163/compiler/lib/intel64/libimf.a(dpml_ux_mod.o)
                0x00000000004df4e0                __fmodq
                0x00000000004dfb70                __dremq
                0x00000000004e0200                __remainderq
                0x00000000004e0890                __remquoq
 .text          0x00000000004e0f60     0x1540 /opt/intel/composer_xe_2013.3.163/compiler/lib/intel64/libimf.a(dpml_ux_ops_64.o)
                0x00000000004e0f60                __dpml_extended_multiply__
                0x00000000004e1130                __dpml_evaluate_rational__
                0x00000000004e19d0                __dpml_divide__
                0x00000000004e1e70                __dpml_multiply__
 .text          0x00000000004e24a0      0xa90 /opt/intel/composer_xe_2013.3.163/compiler/lib/intel64/libimf.a(dpml_ux_ops.o)
                0x00000000004e24a0                __dpml_unpack2__
                0x00000000004e2530                __dpml_unpack_x_or_y__
                0x00000000004e28b0                __dpml_pack__
                0x00000000004e2ac0                __dpml_evaluate_packed_poly__
                0x00000000004e2bd0                __dpml_addsub__
                0x00000000004e2e20                __dpml_ffs_and_shift__
 .text          0x00000000004e2f30      0x300 /opt/intel/composer_xe_2013.3.163/compiler/lib/intel64/libimf.a(dpml_ux_powi.o)
                0x00000000004e2f30                __powiq
                0x00000000004e30b0                __powi_eq
 .text          0x00000000004e3230      0x5c0 /opt/intel/composer_xe_2013.3.163/compiler/lib/intel64/libimf.a(dpml_ux_sqrt.o)
                0x00000000004e3230                __dpml_ux_sqrt_evaluation__
                0x00000000004e35e0                __sqrtq
                0x00000000004e3680                __rsqrtq
                0x00000000004e3710                __dpml_ux_hypot__
 .text          0x00000000004e37f0     0x1690 /opt/intel/composer_xe_2013.3.163/compiler/lib/intel64/libimf.a(dpml_ux_trig.o)
                0x00000000004e42c0                __dpml_ux_sincos
 .text          0x00000000004e4e80       0x30 /opt/intel/composer_xe_2013.3.163/compiler/lib/intel64/libimf.a(exp10q_stub.o)
                0x00000000004e4e80                __exp10q
 .text          0x00000000004e4eb0       0x30 /opt/intel/composer_xe_2013.3.163/compiler/lib/intel64/libimf.a(exp2q_stub.o)
                0x00000000004e4eb0                __exp2q
 .text          0x00000000004e4ee0       0x30 /opt/intel/composer_xe_2013.3.163/compiler/lib/intel64/libimf.a(expq_stub.o)
                0x00000000004e4ee0                __expq
 .text          0x00000000004e4f10      0x100 /opt/intel/composer_xe_2013.3.163/compiler/lib/intel64/libimf.a(fabsq.o)
                0x00000000004e4f10                __fabsq
 .text          0x00000000004e5010      0x240 /opt/intel/composer_xe_2013.3.163/compiler/lib/intel64/libimf.a(floorq.o)
                0x00000000004e5010                __floorq
 .text          0x00000000004e5250      0x2c0 /opt/intel/composer_xe_2013.3.163/compiler/lib/intel64/libimf.a(frexpq.o)
                0x00000000004e5250                __frexpq
 .text          0x00000000004e5510       0x30 /opt/intel/composer_xe_2013.3.163/compiler/lib/intel64/libimf.a(hypotq_stub.o)
                0x00000000004e5510                __hypotq
 .text          0x00000000004e5540      0x590 /opt/intel/composer_xe_2013.3.163/compiler/lib/intel64/libimf.a(intel_quad_exception.o)
                0x00000000004e5540                __dpml_exception
                0x00000000004e56e0                __dpml_intel_atan_fixup
                0x00000000004e5850                __dpml_intel_pow_fixup
                0x00000000004e5ac0                __dpml_d_intel_order_fixup
 .text          0x00000000004e5ad0      0x6d0 /opt/intel/composer_xe_2013.3.163/compiler/lib/intel64/libimf.a(ldexpq.o)
                0x00000000004e5ad0                __ldexpq
 .text          0x00000000004e61a0       0x10 /opt/intel/composer_xe_2013.3.163/compiler/lib/intel64/libimf.a(libm128_error.o)
                0x00000000004e61a0                __libm128_error_support
 .text          0x00000000004e61b0      0x2b0 /opt/intel/composer_xe_2013.3.163/compiler/lib/intel64/libimf.a(libm_exp10_k64.o)
                0x00000000004e61b0                __libm_exp10_k64
 .text          0x00000000004e6460      0x3a0 /opt/intel/composer_xe_2013.3.163/compiler/lib/intel64/libimf.a(libm_mul_k64.o)
                0x00000000004e6460                __libm_mul_k64
 .text          0x00000000004e6800      0x480 /opt/intel/composer_xe_2013.3.163/compiler/lib/intel64/libimf.a(libm_sincosln10_k64.o)
                0x00000000004e6800                __libm_sincosln10_k64
 .text          0x00000000004e6c80       0x30 /opt/intel/composer_xe_2013.3.163/compiler/lib/intel64/libimf.a(log10q_stub.o)
                0x00000000004e6c80                __log10q
 .text          0x00000000004e6cb0       0x30 /opt/intel/composer_xe_2013.3.163/compiler/lib/intel64/libimf.a(log2q_stub.o)
                0x00000000004e6cb0                __log2q
 .text          0x00000000004e6ce0       0x30 /opt/intel/composer_xe_2013.3.163/compiler/lib/intel64/libimf.a(logq_stub.o)
                0x00000000004e6ce0                __logq
 .text          0x00000000004e6d10      0x420 /opt/intel/composer_xe_2013.3.163/compiler/lib/intel64/libimf.a(nextafterq.o)
                0x00000000004e6d10                __nextafterq
 .text          0x00000000004e7130       0x30 /opt/intel/composer_xe_2013.3.163/compiler/lib/intel64/libimf.a(powq_stub.o)
                0x00000000004e7130                __powq
 .text          0x00000000004e7160      0x4f0 /opt/intel/composer_xe_2013.3.163/compiler/lib/intel64/libimf.a(rintq.o)
                0x00000000004e7160                __rintq
 .text          0x00000000004e7650      0x6d0 /opt/intel/composer_xe_2013.3.163/compiler/lib/intel64/libimf.a(scalbnq.o)
                0x00000000004e7650                __scalbnq
 .text          0x00000000004e7d20       0x30 /opt/intel/composer_xe_2013.3.163/compiler/lib/intel64/libimf.a(sindf_stub.o)
                0x00000000004e7d20                sindf
 .text          0x00000000004e7d50       0x30 /opt/intel/composer_xe_2013.3.163/compiler/lib/intel64/libimf.a(sindq_stub.o)
                0x00000000004e7d50                __sindq
 .text          0x00000000004e7d80       0x30 /opt/intel/composer_xe_2013.3.163/compiler/lib/intel64/libimf.a(sind_stub.o)
                0x00000000004e7d80                sind
 .text          0x00000000004e7db0       0x30 /opt/intel/composer_xe_2013.3.163/compiler/lib/intel64/libimf.a(sinhq_stub.o)
                0x00000000004e7db0                __sinhq
 .text          0x00000000004e7de0       0x30 /opt/intel/composer_xe_2013.3.163/compiler/lib/intel64/libimf.a(sinq_stub.o)
                0x00000000004e7de0                __sinq
 .text          0x00000000004e7e10       0x30 /opt/intel/composer_xe_2013.3.163/compiler/lib/intel64/libimf.a(tandf_stub.o)
                0x00000000004e7e10                tandf
 .text          0x00000000004e7e40       0x30 /opt/intel/composer_xe_2013.3.163/compiler/lib/intel64/libimf.a(tandq_stub.o)
                0x00000000004e7e40                __tandq
 .text          0x00000000004e7e70       0x30 /opt/intel/composer_xe_2013.3.163/compiler/lib/intel64/libimf.a(tand_stub.o)
                0x00000000004e7e70                tand
 .text          0x00000000004e7ea0       0x30 /opt/intel/composer_xe_2013.3.163/compiler/lib/intel64/libimf.a(tanhq_stub.o)
                0x00000000004e7ea0                __tanhq
 .text          0x00000000004e7ed0       0x30 /opt/intel/composer_xe_2013.3.163/compiler/lib/intel64/libimf.a(tanq_stub.o)
                0x00000000004e7ed0                __tanq
 .text          0x00000000004e7f00      0x1b0 /opt/intel/composer_xe_2013.3.163/compiler/lib/intel64/libimf.a(truncq.o)
                0x00000000004e7f00                __truncq
 .text          0x00000000004e80b0      0x5c0 /opt/intel/composer_xe_2013.3.163/compiler/lib/intel64/libimf.a(acosd_ct.o)
                0x00000000004e80b0                acosd.L
 .text          0x00000000004e8670      0x380 /opt/intel/composer_xe_2013.3.163/compiler/lib/intel64/libimf.a(acosd_gen.o)
                0x00000000004e8670                acosd.A
 .text          0x00000000004e89f0     0x1b60 /opt/intel/composer_xe_2013.3.163/compiler/lib/intel64/libimf.a(acosdq_ct.o)
                0x00000000004e89f0                __acosdq.L
 .text          0x00000000004ea550     0x13e0 /opt/intel/composer_xe_2013.3.163/compiler/lib/intel64/libimf.a(acosdq_gen.o)
                0x00000000004ea550                __acosdq.A
 .text          0x00000000004eb930     0x1880 /opt/intel/composer_xe_2013.3.163/compiler/lib/intel64/libimf.a(acoshq_ct.o)
                0x00000000004eb930                __acoshq.L
 .text          0x00000000004ed1b0     0x1340 /opt/intel/composer_xe_2013.3.163/compiler/lib/intel64/libimf.a(acoshq_gen.o)
                0x00000000004ed1b0                __acoshq.A
 .text          0x00000000004ee4f0     0x1990 /opt/intel/composer_xe_2013.3.163/compiler/lib/intel64/libimf.a(acosq_ct.o)
                0x00000000004ee4f0                __acosq.L
 .text          0x00000000004efe80     0x1240 /opt/intel/composer_xe_2013.3.163/compiler/lib/intel64/libimf.a(acosq_gen.o)
                0x00000000004efe80                __acosq.A
 .text          0x00000000004f10c0      0x630 /opt/intel/composer_xe_2013.3.163/compiler/lib/intel64/libimf.a(asind_ct.o)
                0x00000000004f10c0                asind.L
 .text          0x00000000004f16f0      0x410 /opt/intel/composer_xe_2013.3.163/compiler/lib/intel64/libimf.a(asind_gen.o)
                0x00000000004f16f0                asind.A
 .text          0x00000000004f1b00     0x1c10 /opt/intel/composer_xe_2013.3.163/compiler/lib/intel64/libimf.a(asindq_ct.o)
                0x00000000004f1b00                __asindq.L
 .text          0x00000000004f3710     0x1380 /opt/intel/composer_xe_2013.3.163/compiler/lib/intel64/libimf.a(asindq_gen.o)
                0x00000000004f3710                __asindq.A
 .text          0x00000000004f4a90     0x21a0 /opt/intel/composer_xe_2013.3.163/compiler/lib/intel64/libimf.a(asinhq_ct.o)
                0x00000000004f4a90                __asinhq.L
 .text          0x00000000004f6c30     0x16f0 /opt/intel/composer_xe_2013.3.163/compiler/lib/intel64/libimf.a(asinhq_gen.o)
                0x00000000004f6c30                __asinhq.A
 .text          0x00000000004f8320     0x1940 /opt/intel/composer_xe_2013.3.163/compiler/lib/intel64/libimf.a(asinq_ct.o)
                0x00000000004f8320                __asinq.L
 .text          0x00000000004f9c60     0x11b0 /opt/intel/composer_xe_2013.3.163/compiler/lib/intel64/libimf.a(asinq_gen.o)
                0x00000000004f9c60                __asinq.A
 .text          0x00000000004fae10     0x1bc0 /opt/intel/composer_xe_2013.3.163/compiler/lib/intel64/libimf.a(atan2dq_ct.o)
                0x00000000004fae10                __atan2dq.L
                0x00000000004fc9c0                __atand2q.L
 .text          0x00000000004fc9d0     0x2c40 /opt/intel/composer_xe_2013.3.163/compiler/lib/intel64/libimf.a(atan2dq_gen.o)
                0x00000000004fc9d0                __atan2dq.A
                0x00000000004fdff0                __atand2q.A
 .text          0x00000000004ff610     0x1df0 /opt/intel/composer_xe_2013.3.163/compiler/lib/intel64/libimf.a(atan2q_ct.o)
                0x00000000004ff610                __atan2q.L
 .text          0x0000000000501400     0x1950 /opt/intel/composer_xe_2013.3.163/compiler/lib/intel64/libimf.a(atan2q_gen.o)
                0x0000000000501400                __atan2q.A
 .text          0x0000000000502d50     0x1960 /opt/intel/composer_xe_2013.3.163/compiler/lib/intel64/libimf.a(atandq_ct.o)
                0x0000000000502d50                __atandq.L
 .text          0x00000000005046b0     0x1280 /opt/intel/composer_xe_2013.3.163/compiler/lib/intel64/libimf.a(atandq_gen.o)
                0x00000000005046b0                __atandq.A
 .text          0x0000000000505930     0x17d0 /opt/intel/composer_xe_2013.3.163/compiler/lib/intel64/libimf.a(atanhq_ct.o)
                0x0000000000505930                __atanhq.L
 .text          0x0000000000507100     0x1250 /opt/intel/composer_xe_2013.3.163/compiler/lib/intel64/libimf.a(atanhq_gen.o)
                0x0000000000507100                __atanhq.A
 .text          0x0000000000508350     0x15b0 /opt/intel/composer_xe_2013.3.163/compiler/lib/intel64/libimf.a(atanq_ct.o)
                0x0000000000508350                __atanq.L
 .text          0x0000000000509900     0x1050 /opt/intel/composer_xe_2013.3.163/compiler/lib/intel64/libimf.a(atanq_gen.o)
                0x0000000000509900                __atanq.A
 .text          0x000000000050a950      0x4f0 /opt/intel/composer_xe_2013.3.163/compiler/lib/intel64/libimf.a(cbrtq_ct.o)
                0x000000000050a950                __cbrtq.L
 .text          0x000000000050ae40      0x5d0 /opt/intel/composer_xe_2013.3.163/compiler/lib/intel64/libimf.a(cbrtq_gen.o)
                0x000000000050ae40                __cbrtq.A
 .text          0x000000000050b410      0x150 /opt/intel/composer_xe_2013.3.163/compiler/lib/intel64/libimf.a(copysignq.o)
                0x000000000050b410                __copysignq
 .text          0x000000000050b560      0x3c0 /opt/intel/composer_xe_2013.3.163/compiler/lib/intel64/libimf.a(cosd_ct.o)
                0x000000000050b560                cosd.L
 .text          0x000000000050b920      0x1f0 /opt/intel/composer_xe_2013.3.163/compiler/lib/intel64/libimf.a(cosdf_ct.o)
                0x000000000050b920                cosdf.L
 .text          0x000000000050bb10      0x2a0 /opt/intel/composer_xe_2013.3.163/compiler/lib/intel64/libimf.a(cosdf_gen.o)
                0x000000000050bb10                cosdf.A
 .text          0x000000000050bdb0      0x4b0 /opt/intel/composer_xe_2013.3.163/compiler/lib/intel64/libimf.a(cosd_gen.o)
                0x000000000050bdb0                cosd.A
 .text          0x000000000050c260     0x13c0 /opt/intel/composer_xe_2013.3.163/compiler/lib/intel64/libimf.a(cosdq_ct.o)
                0x000000000050c260                __cosdq.L
 .text          0x000000000050d620     0x10e0 /opt/intel/composer_xe_2013.3.163/compiler/lib/intel64/libimf.a(cosdq_gen.o)
                0x000000000050d620                __cosdq.A
 .text          0x000000000050e700     0x1870 /opt/intel/composer_xe_2013.3.163/compiler/lib/intel64/libimf.a(coshq_ct.o)
                0x000000000050e700                __coshq.L
 .text          0x000000000050ff70     0x11d0 /opt/intel/composer_xe_2013.3.163/compiler/lib/intel64/libimf.a(coshq_gen.o)
                0x000000000050ff70                __coshq.A
 .text          0x0000000000511140     0x2340 /opt/intel/composer_xe_2013.3.163/compiler/lib/intel64/libimf.a(cosq_ct.o)
                0x0000000000511140                __cosq.L
 .text          0x0000000000513480     0x1920 /opt/intel/composer_xe_2013.3.163/compiler/lib/intel64/libimf.a(cosq_gen.o)
                0x0000000000513480                __cosq.A
 .text          0x0000000000514da0      0x590 /opt/intel/composer_xe_2013.3.163/compiler/lib/intel64/libimf.a(cotd_ct.o)
                0x0000000000514da0                cotd.L
 .text          0x0000000000515330      0x300 /opt/intel/composer_xe_2013.3.163/compiler/lib/intel64/libimf.a(cotdf_ct.o)
                0x0000000000515330                cotdf.L
 .text          0x0000000000515630      0x3f0 /opt/intel/composer_xe_2013.3.163/compiler/lib/intel64/libimf.a(cotdf_gen.o)
                0x0000000000515630                cotdf.A
 .text          0x0000000000515a20      0x810 /opt/intel/composer_xe_2013.3.163/compiler/lib/intel64/libimf.a(cotd_gen.o)
                0x0000000000515a20                cotd.A
 .text          0x0000000000516230     0x1f10 /opt/intel/composer_xe_2013.3.163/compiler/lib/intel64/libimf.a(cotdq_ct.o)
                0x0000000000516230                __cotdq.L
 .text          0x0000000000518140     0x16c0 /opt/intel/composer_xe_2013.3.163/compiler/lib/intel64/libimf.a(cotdq_gen.o)
                0x0000000000518140                __cotdq.A
 .text          0x0000000000519800     0x29c0 /opt/intel/composer_xe_2013.3.163/compiler/lib/intel64/libimf.a(cotq_ct.o)
                0x0000000000519800                __cotq.L
 .text          0x000000000051c1c0     0x19c0 /opt/intel/composer_xe_2013.3.163/compiler/lib/intel64/libimf.a(cotq_gen.o)
                0x000000000051c1c0                __cotq.A
 .text          0x000000000051db80      0xbe0 /opt/intel/composer_xe_2013.3.163/compiler/lib/intel64/libimf.a(exp10q_ct.o)
                0x000000000051db80                __exp10q.L
 .text          0x000000000051e760      0xa60 /opt/intel/composer_xe_2013.3.163/compiler/lib/intel64/libimf.a(exp10q_gen.o)
                0x000000000051e760                __exp10q.A
 .text          0x000000000051f1c0     0x10e0 /opt/intel/composer_xe_2013.3.163/compiler/lib/intel64/libimf.a(exp2q_ct.o)
                0x000000000051f1c0                __exp2q.L
 .text          0x00000000005202a0      0xf70 /opt/intel/composer_xe_2013.3.163/compiler/lib/intel64/libimf.a(exp2q_gen.o)
                0x00000000005202a0                __exp2q.A
 .text          0x0000000000521210      0xb80 /opt/intel/composer_xe_2013.3.163/compiler/lib/intel64/libimf.a(expq_ct.o)
                0x0000000000521210                __expq.L
 .text          0x0000000000521d90      0xa20 /opt/intel/composer_xe_2013.3.163/compiler/lib/intel64/libimf.a(expq_gen.o)
                0x0000000000521d90                __expq.A
 .text          0x00000000005227b0      0xfe0 /opt/intel/composer_xe_2013.3.163/compiler/lib/intel64/libimf.a(hypotq_ct.o)
                0x00000000005227b0                __hypotq.L
 .text          0x0000000000523790     0x1030 /opt/intel/composer_xe_2013.3.163/compiler/lib/intel64/libimf.a(hypotq_gen.o)
                0x0000000000523790                __hypotq.A
 .text          0x00000000005247c0      0x6c0 /opt/intel/composer_xe_2013.3.163/compiler/lib/intel64/libimf.a(libm128_basics.o)
                0x00000000005247c0                __libm128_convert_128to80x2
                0x0000000000524820                __libm128_convert_128to80x2_p4
                0x00000000005248e0                __libm128_convert_128to80x2_gen
                0x0000000000524940                __libm128_convert_80x2to128_chk
 .text          0x0000000000524e80      0x280 /opt/intel/composer_xe_2013.3.163/compiler/lib/intel64/libimf.a(libm128_l_ops.o)
                0x0000000000524e80                __libm128_l_qadd2_l
                0x0000000000524ea0                __libm128_l_qsub2_l
                0x0000000000524ec0                __libm128_l_fadd2_l
                0x0000000000524ef0                __libm128_l_fsub2_l
                0x0000000000524f20                __libm128_l_fsplit_l_hi
                0x0000000000524f50                __libm128_l_fsplit_l_mi
                0x0000000000524f80                __libm128_l_fmul2_l
                0x0000000000524fc0                __libm128_l_fmul2_s
                0x0000000000524ff0                __libm128_l_fsqr2_l
                0x0000000000525020                __libm128_l_mul_l
                0x0000000000525030                __libm128_l_fma_l
                0x0000000000525050                __libm128_l_frcpa_scaled_ll
                0x00000000005250a0                __libm128_l_frcpa_l
                0x00000000005250b0                __libm128_l_frcpa_scaled_ls
 .text          0x0000000000525100      0x780 /opt/intel/composer_xe_2013.3.163/compiler/lib/intel64/libimf.a(libm128_reduce_pi04q.o)
                0x0000000000525100                __libm128_reduce_pi04q
 .text          0x0000000000525880     0x1010 /opt/intel/composer_xe_2013.3.163/compiler/lib/intel64/libimf.a(libm128_x_ops.o)
                0x0000000000525880                __libm128_x_resplit_x
                0x00000000005258a0                __libm128_x_add_lesser_xl
                0x00000000005258c0                __libm128_x_add_lesser_ll
                0x00000000005258e0                __libm128_x_sub_lesser_xl
                0x0000000000525900                __libm128_x_sub_lesser_ll
                0x0000000000525920                __libm128_x_add_lx
                0x0000000000525950                __libm128_x_add_ll
                0x0000000000525980                __libm128_x_sub_ll
                0x00000000005259b0                __libm128_x_addd_xx
                0x00000000005259d0                __libm128_x_addd_x
                0x00000000005259f0                __libm128_x_addh_xl
                0x0000000000525a10                __libm128_x_addh_l
                0x0000000000525a20                __libm128_x_addl_xl
                0x0000000000525a40                __libm128_x_addl_l
                0x0000000000525a50                __libm128_l_addhl_xl
                0x0000000000525a60                __libm128_x_subd_xx
                0x0000000000525a80                __libm128_x_subd_x
                0x0000000000525aa0                __libm128_x_subh_xl
                0x0000000000525ac0                __libm128_x_subh_l
                0x0000000000525ad0                __libm128_x_subl_xl
                0x0000000000525af0                __libm128_x_subl_l
                0x0000000000525b00                __libm128_l_subhl_xl
                0x0000000000525b10                __libm128_x_mul_ls
                0x0000000000525b50                __libm128_x_sqr_x
                0x0000000000525ba0                __libm128_x_scale_xl
                0x0000000000525bc0                __libm128_x_fma_greater_xxx
                0x0000000000525bf0                __libm128_x_mul_xx
                0x0000000000525c60                __libm128_x_add_lesser_xx
                0x0000000000525c80                __libm128_x_fma_greater_xxl
                0x0000000000525cc0                __libm128_x_add_lesser_lx
                0x0000000000525ce0                __libm128_x_fma_greater_xlx
                0x0000000000525d20                __libm128_x_mul_xl
                0x0000000000525d80                __libm128_x_fma_greater_xll
                0x0000000000525dc0                __libm128_x_fma_greater_xsx
                0x0000000000525e00                __libm128_x_mul_xs
                0x0000000000525e50                __libm128_x_fma_greater_xsl
                0x0000000000525e90                __libm128_x_fma_greater_llx
                0x0000000000525ee0                __libm128_x_mul_ll
                0x0000000000525f40                __libm128_x_fma_greater_lll
                0x0000000000525f90                __libm128_x_fnma_greater_xxx
                0x0000000000525fc0                __libm128_x_sub_lesser_xx
                0x0000000000525ff0                __libm128_x_fnma_greater_xxl
                0x0000000000526030                __libm128_x_sub_lesser_lx
                0x0000000000526050                __libm128_x_fma_xxx
                0x0000000000526080                __libm128_x_add_xx
                0x00000000005260b0                __libm128_x_fma_xxl
                0x00000000005260f0                __libm128_x_add_xl
                0x0000000000526120                __libm128_x_fma_xlx
                0x0000000000526160                __libm128_x_fma_xll
                0x00000000005261a0                __libm128_x_fma_xsx
                0x00000000005261e0                __libm128_x_fma_xsl
                0x0000000000526220                __libm128_x_fma_llx
                0x0000000000526270                __libm128_x_fma_lll
                0x00000000005262c0                __libm128_x_fms_xxx
                0x00000000005262f0                __libm128_x_sub_xx
                0x0000000000526320                __libm128_x_fms_xxl
                0x0000000000526360                __libm128_x_sub_xl
                0x0000000000526390                __libm128_x_fms_xlx
                0x00000000005263d0                __libm128_x_fms_xll
                0x0000000000526410                __libm128_x_fms_xsx
                0x0000000000526450                __libm128_x_fms_xsl
                0x0000000000526490                __libm128_x_fms_llx
                0x00000000005264e0                __libm128_x_fms_lll
                0x0000000000526530                __libm128_x_rcp_l
                0x00000000005265a0                __libm128_x_sqrt_x
                0x0000000000526630                __libm128_x_sqr_l
                0x0000000000526670                __libm128_x_sqrt_l
                0x00000000005266f0                __libm128_x_sub_lx
                0x0000000000526720                __libm128_x_rsqrt_x
                0x00000000005267a0                __libm128_x_cbrt_x
                0x0000000000526830                __libm128_x_rcp_x
 .text          0x0000000000526890      0x530 /opt/intel/composer_xe_2013.3.163/compiler/lib/intel64/libimf.a(libm_reduce_pio2ln10.o)
                0x0000000000526890                __libm_reduce_pio2ln10
 .text          0x0000000000526dc0     0x13b0 /opt/intel/composer_xe_2013.3.163/compiler/lib/intel64/libimf.a(log10q_ct.o)
                0x0000000000526dc0                __log10q.L
 .text          0x0000000000528170      0xed0 /opt/intel/composer_xe_2013.3.163/compiler/lib/intel64/libimf.a(log10q_gen.o)
                0x0000000000528170                __log10q.A
 .text          0x0000000000529040     0x1390 /opt/intel/composer_xe_2013.3.163/compiler/lib/intel64/libimf.a(log2q_ct.o)
                0x0000000000529040                __log2q.L
 .text          0x000000000052a3d0      0xea0 /opt/intel/composer_xe_2013.3.163/compiler/lib/intel64/libimf.a(log2q_gen.o)
                0x000000000052a3d0                __log2q.A
 .text          0x000000000052b270     0x12f0 /opt/intel/composer_xe_2013.3.163/compiler/lib/intel64/libimf.a(logq_ct.o)
                0x000000000052b270                __logq.L
 .text          0x000000000052c560      0xec0 /opt/intel/composer_xe_2013.3.163/compiler/lib/intel64/libimf.a(logq_gen.o)
                0x000000000052c560                __logq.A
 .text          0x000000000052d420     0x3fa0 /opt/intel/composer_xe_2013.3.163/compiler/lib/intel64/libimf.a(powq_ct.o)
                0x000000000052d420                __powq.L
 .text          0x00000000005313c0     0x2ef0 /opt/intel/composer_xe_2013.3.163/compiler/lib/intel64/libimf.a(powq_gen.o)
                0x00000000005313c0                __powq.A
 .text          0x00000000005342b0      0x260 /opt/intel/composer_xe_2013.3.163/compiler/lib/intel64/libimf.a(roundq.o)
                0x00000000005342b0                __roundq
 .text          0x0000000000534510      0x480 /opt/intel/composer_xe_2013.3.163/compiler/lib/intel64/libimf.a(sind_ct.o)
                0x0000000000534510                sind.L
 .text          0x0000000000534990      0x200 /opt/intel/composer_xe_2013.3.163/compiler/lib/intel64/libimf.a(sindf_ct.o)
                0x0000000000534990                sindf.L
 .text          0x0000000000534b90      0x2c0 /opt/intel/composer_xe_2013.3.163/compiler/lib/intel64/libimf.a(sindf_gen.o)
                0x0000000000534b90                sindf.A
 .text          0x0000000000534e50      0x640 /opt/intel/composer_xe_2013.3.163/compiler/lib/intel64/libimf.a(sind_gen.o)
                0x0000000000534e50                sind.A
 .text          0x0000000000535490     0x15f0 /opt/intel/composer_xe_2013.3.163/compiler/lib/intel64/libimf.a(sindq_ct.o)
                0x0000000000535490                __sindq.L
 .text          0x0000000000536a80     0x11e0 /opt/intel/composer_xe_2013.3.163/compiler/lib/intel64/libimf.a(sindq_gen.o)
                0x0000000000536a80                __sindq.A
 .text          0x0000000000537c60     0x19f0 /opt/intel/composer_xe_2013.3.163/compiler/lib/intel64/libimf.a(sinhq_ct.o)
                0x0000000000537c60                __sinhq.L
 .text          0x0000000000539650     0x1200 /opt/intel/composer_xe_2013.3.163/compiler/lib/intel64/libimf.a(sinhq_gen.o)
                0x0000000000539650                __sinhq.A
 .text          0x000000000053a850     0x2580 /opt/intel/composer_xe_2013.3.163/compiler/lib/intel64/libimf.a(sinq_ct.o)
                0x000000000053a850                __sinq.L
 .text          0x000000000053cdd0     0x1960 /opt/intel/composer_xe_2013.3.163/compiler/lib/intel64/libimf.a(sinq_gen.o)
                0x000000000053cdd0                __sinq.A
 .text          0x000000000053e730      0x5a0 /opt/intel/composer_xe_2013.3.163/compiler/lib/intel64/libimf.a(tand_ct.o)
                0x000000000053e730                tand.L
 .text          0x000000000053ecd0      0x2e0 /opt/intel/composer_xe_2013.3.163/compiler/lib/intel64/libimf.a(tandf_ct.o)
                0x000000000053ecd0                tandf.L
 .text          0x000000000053efb0      0x3a0 /opt/intel/composer_xe_2013.3.163/compiler/lib/intel64/libimf.a(tandf_gen.o)
                0x000000000053efb0                tandf.A
 .text          0x000000000053f350      0x7c0 /opt/intel/composer_xe_2013.3.163/compiler/lib/intel64/libimf.a(tand_gen.o)
                0x000000000053f350                tand.A
 .text          0x000000000053fb10     0x1dd0 /opt/intel/composer_xe_2013.3.163/compiler/lib/intel64/libimf.a(tandq_ct.o)
                0x000000000053fb10                __tandq.L
 .text          0x00000000005418e0     0x1560 /opt/intel/composer_xe_2013.3.163/compiler/lib/intel64/libimf.a(tandq_gen.o)
                0x00000000005418e0                __tandq.A
 .text          0x0000000000542e40     0x1bb0 /opt/intel/composer_xe_2013.3.163/compiler/lib/intel64/libimf.a(tanhq_ct.o)
                0x0000000000542e40                __tanhq.L
 .text          0x00000000005449f0     0x1200 /opt/intel/composer_xe_2013.3.163/compiler/lib/intel64/libimf.a(tanhq_gen.o)
                0x00000000005449f0                __tanhq.A
 .text          0x0000000000545bf0     0x27c0 /opt/intel/composer_xe_2013.3.163/compiler/lib/intel64/libimf.a(tanq_ct.o)
                0x0000000000545bf0                __tanq.L
 .text          0x00000000005483b0     0x1850 /opt/intel/composer_xe_2013.3.163/compiler/lib/intel64/libimf.a(tanq_gen.o)
                0x00000000005483b0                __tanq.A
 .text          0x0000000000549c00      0x1e0 /opt/intel/composer_xe_2013.3.163/compiler/lib/intel64/libimf.a(invsqrtl.o)
                0x0000000000549c00                invsqrtl
 .text          0x0000000000549de0     0x2d30 /opt/intel/composer_xe_2013.3.163/compiler/lib/intel64/libimf.a(libm128_y_ops.o)
                0x0000000000549de0                __libm128_y_resplit_y
                0x0000000000549e20                __libm128_y_resplit_hm_y2x
                0x0000000000549e40                __libm128_y_add_lesser_yl
                0x0000000000549e80                __libm128_y_add_lesser_xl
                0x0000000000549ec0                __libm128_y_add_lesser_ll
                0x0000000000549ef0                __libm128_y_sub_lesser_yy
                0x0000000000549f50                __libm128_y_sub_lesser_yx
                0x0000000000549fb0                __libm128_y_sub_lesser_yl
                0x0000000000549ff0                __libm128_y_sub_lesser_xy
                0x000000000054a050                __libm128_y_sub_lesser_xx
                0x000000000054a0a0                __libm128_y_sub_lesser_xl
                0x000000000054a0e0                __libm128_y_sub_lesser_ly
                0x000000000054a120                __libm128_y_sub_lesser_lx
                0x000000000054a160                __libm128_y_sub_lesser_ll
                0x000000000054a190                __libm128_y_sub_yl
                0x000000000054a1e0                __libm128_y_subh_l
                0x000000000054a1f0                __libm128_l_addhl_yl
                0x000000000054a210                __libm128_y_sqr_y
                0x000000000054a2f0                __libm128_y_scale_yl
                0x000000000054a310                __libm128_y_fma_greater_yyy
                0x000000000054a340                __libm128_y_mul_yy
                0x000000000054a510                __libm128_y_add_lesser_yy
                0x000000000054a570                __libm128_y_fma_greater_yyx
                0x000000000054a5a0                __libm128_y_add_lesser_xy
                0x000000000054a5f0                __libm128_y_fma_greater_yyl
                0x000000000054a630                __libm128_y_add_lesser_ly
                0x000000000054a670                __libm128_y_fma_greater_yxy
                0x000000000054a6a0                __libm128_y_mul_yx
                0x000000000054a870                __libm128_y_fma_greater_yxx
                0x000000000054a8a0                __libm128_y_fma_greater_yxl
                0x000000000054a8e0                __libm128_y_fma_greater_yly
                0x000000000054a920                __libm128_y_mul_yl
                0x000000000054aa10                __libm128_y_fma_greater_ylx
                0x000000000054aa50                __libm128_y_fma_greater_yll
                0x000000000054aa90                __libm128_y_fma_greater_ysy
                0x000000000054aad0                __libm128_y_mul_ys
                0x000000000054ab60                __libm128_y_fma_greater_ysx
                0x000000000054aba0                __libm128_y_fma_greater_ysl
                0x000000000054abe0                __libm128_y_fma_greater_xxy
                0x000000000054ac10                __libm128_y_mul_xx
                0x000000000054ade0                __libm128_y_fma_greater_xxx
                0x000000000054ae10                __libm128_y_fma_greater_xxl
                0x000000000054ae50                __libm128_y_fma_greater_xly
                0x000000000054ae90                __libm128_y_mul_xl
                0x000000000054af60                __libm128_y_fma_greater_xlx
                0x000000000054afa0                __libm128_y_fma_greater_xll
                0x000000000054afe0                __libm128_y_fma_greater_xsy
                0x000000000054b020                __libm128_y_mul_xs
                0x000000000054b0a0                __libm128_y_fma_greater_xsx
                0x000000000054b0e0                __libm128_y_fma_greater_xsl
                0x000000000054b120                __libm128_y_fma_greater_lly
                0x000000000054b190                __libm128_y_add_lesser_yx
                0x000000000054b1f0                __libm128_y_fma_greater_llx
                0x000000000054b260                __libm128_y_add_lesser_xx
                0x000000000054b2b0                __libm128_y_fma_greater_lll
                0x000000000054b340                __libm128_y_add_lesser_lx
                0x000000000054b380                __libm128_y_fma_yyy
                0x000000000054b3b0                __libm128_y_add_yy
                0x000000000054b410                __libm128_y_fma_yyx
                0x000000000054b440                __libm128_y_add_yx
                0x000000000054b4a0                __libm128_y_fma_yyl
                0x000000000054b4e0                __libm128_y_add_yl
                0x000000000054b530                __libm128_y_fma_yxy
                0x000000000054b560                __libm128_y_fma_yxx
                0x000000000054b590                __libm128_y_fma_yxl
                0x000000000054b5d0                __libm128_y_fma_yly
                0x000000000054b610                __libm128_y_fma_ylx
                0x000000000054b650                __libm128_y_fma_yll
                0x000000000054b690                __libm128_y_fma_ysy
                0x000000000054b6d0                __libm128_y_fma_ysx
                0x000000000054b710                __libm128_y_fma_ysl
                0x000000000054b750                __libm128_y_fma_xxy
                0x000000000054b780                __libm128_y_fma_xxx
                0x000000000054b7b0                __libm128_y_fma_xxl
                0x000000000054b7f0                __libm128_y_fma_xly
                0x000000000054b830                __libm128_y_fma_xlx
                0x000000000054b870                __libm128_y_fma_xll
                0x000000000054b8b0                __libm128_y_fma_xsy
                0x000000000054b8f0                __libm128_y_fma_xsx
                0x000000000054b930                __libm128_y_fma_xsl
                0x000000000054b970                __libm128_y_fma_lly
                0x000000000054b9e0                __libm128_y_fma_llx
                0x000000000054ba50                __libm128_y_add_xx
                0x000000000054bab0                __libm128_y_fma_lll
                0x000000000054bb40                __libm128_y_add_xl
                0x000000000054bb80                __libm128_y_fms_yyy
                0x000000000054bbb0                __libm128_y_sub_yy
                0x000000000054bc10                __libm128_y_fms_yyx
                0x000000000054bc40                __libm128_y_sub_xy
                0x000000000054bca0                __libm128_y_fms_yyl
                0x000000000054bce0                __libm128_y_sub_ly
                0x000000000054bd30                __libm128_y_fms_yxy
                0x000000000054bd60                __libm128_y_fms_yxx
                0x000000000054bd90                __libm128_y_fms_yxl
                0x000000000054bdd0                __libm128_y_fms_yly
                0x000000000054be10                __libm128_y_fms_ylx
                0x000000000054be50                __libm128_y_fms_yll
                0x000000000054be90                __libm128_y_fms_ysy
                0x000000000054bed0                __libm128_y_fms_ysx
                0x000000000054bf10                __libm128_y_fms_ysl
                0x000000000054bf50                __libm128_y_fms_xxy
                0x000000000054bf80                __libm128_y_fms_xxx
                0x000000000054bfb0                __libm128_y_fms_xxl
                0x000000000054bff0                __libm128_y_fms_xly
                0x000000000054c030                __libm128_y_fms_xlx
                0x000000000054c070                __libm128_y_fms_xll
                0x000000000054c0b0                __libm128_y_fms_xsy
                0x000000000054c0f0                __libm128_y_fms_xsx
                0x000000000054c130                __libm128_y_fms_xsl
                0x000000000054c170                __libm128_y_fms_lly
                0x000000000054c1e0                __libm128_y_sub_yx
                0x000000000054c240                __libm128_y_fms_llx
                0x000000000054c2b0                __libm128_y_sub_xx
                0x000000000054c310                __libm128_y_fms_lll
                0x000000000054c3a0                __libm128_y_sub_lx
                0x000000000054c3e0                __libm128_y_rcp_y
                0x000000000054c4d0                __libm128_y_rcp_x
                0x000000000054c5c0                __libm128_y_rcp_l
                0x000000000054c6d0                __libm128_y_sqrt_y
                0x000000000054c810                __libm128_y_sqr_x
                0x000000000054c8d0                __libm128_y_sqrt_x
                0x000000000054c9e0                __libm128_y_sqrt_l
 .text          0x000000000054cb10      0x1e0 /opt/intel/composer_xe_2013.3.163/compiler/lib/intel64/libirc.a(ints2q.o)
                0x000000000054cb10                __ktoq
                0x000000000054cba0                __jtoq
                0x000000000054cc50                __itoq
                0x000000000054ccb0                __utoq
 .text          0x000000000054ccf0       0x20 /opt/intel/composer_xe_2013.3.163/compiler/lib/intel64/libirc.a(negq.o)
                0x000000000054ccf0                __negq
 .text          0x000000000054cd10      0x530 /opt/intel/composer_xe_2013.3.163/compiler/lib/intel64/libirc.a(qcomp.o)
                0x000000000054cd10                __eqq
                0x000000000054cd90                __neq
                0x000000000054ce10                __leq
                0x000000000054cee0                __ltq
                0x000000000054cfc0                __geq
                0x000000000054d090                __gtq
                0x000000000054d170                __compareq
 .text          0x000000000054d240      0x4c0 /opt/intel/composer_xe_2013.3.163/compiler/lib/intel64/libirc.a(q2ints.o)
                0x000000000054d240                __qtoj
                0x000000000054d3e0                __qtok
                0x000000000054d4e0                __qtoi
                0x000000000054d620                __qtou
 .text          0x000000000054d700      0x1d0 /opt/intel/composer_xe_2013.3.163/compiler/lib/intel64/libirc.a(fp2q.o)
                0x000000000054d700                __dtoq
                0x000000000054d7d0                __ltoq
                0x000000000054d840                __ftoq
 .text          0x000000000054d8d0      0x7e0 /opt/intel/composer_xe_2013.3.163/compiler/lib/intel64/libirc.a(q2fp.o)
                0x000000000054d8d0                __qtod
                0x000000000054dbc0                __qtol
                0x000000000054de00                __qtof
 .text          0x000000000054e0b0       0x10 /opt/intel/composer_xe_2013.3.163/compiler/lib/intel64/libirc.a(w_addq.o)
                0x000000000054e0b0                a_addq
 .text          0x000000000054e0c0       0x10 /opt/intel/composer_xe_2013.3.163/compiler/lib/intel64/libirc.a(w_geq.o)
                0x000000000054e0c0                a_geq
 .text          0x000000000054e0d0       0x10 /opt/intel/composer_xe_2013.3.163/compiler/lib/intel64/libirc.a(w_leq.o)
                0x000000000054e0d0                a_leq
 .text          0x000000000054e0e0       0x10 /opt/intel/composer_xe_2013.3.163/compiler/lib/intel64/libirc.a(w_mulq.o)
                0x000000000054e0e0                a_mulq
 .text          0x000000000054e0f0       0x10 /opt/intel/composer_xe_2013.3.163/compiler/lib/intel64/libirc.a(w_subq.o)
                0x000000000054e0f0                a_subq
 .text          0x000000000054e100       0x60 /opt/intel/composer_xe_2013.3.163/compiler/lib/intel64/libirc.a(w_caddq.o)
                0x000000000054e100                __caddq
                0x000000000054e130                a_caddq
 .text          0x000000000054e160      0x120 /opt/intel/composer_xe_2013.3.163/compiler/lib/intel64/libirc.a(w_cmulq.o)
                0x000000000054e160                __cmulq
                0x000000000054e1f0                a_cmulq
 .text          0x000000000054e280       0x60 /opt/intel/composer_xe_2013.3.163/compiler/lib/intel64/libirc.a(w_csubq.o)
                0x000000000054e280                __csubq
                0x000000000054e2b0                a_csubq
 .text          0x000000000054e2e0      0x510 /opt/intel/composer_xe_2013.3.163/compiler/lib/intel64/libirc.a(tbk_display.o)
                0x000000000054e2e0                tbk_string_stack_signal
 .text          0x000000000054e7f0     0x1260 /opt/intel/composer_xe_2013.3.163/compiler/lib/intel64/libirc.a(tbk_backtrace.o)
                0x000000000054e7f0                tbk_getPC
                0x000000000054e800                tbk_getRetAddr
                0x000000000054e810                tbk_getFramePtr
                0x000000000054e820                tbk_getModuleName
                0x000000000054eaf0                tbk_get_pc_info
                0x000000000054f670                tbk_geterrorstring
                0x000000000054f780                tbk_trace_stack
 .text          0x000000000054fa50      0x130 /opt/intel/composer_xe_2013.3.163/compiler/lib/intel64/libirc.a(ia32_memcmp.o)
                0x000000000054fa50                _intel_fast_memcmp
 .text          0x000000000054fb80      0x230 /opt/intel/composer_xe_2013.3.163/compiler/lib/intel64/libirc.a(cpu_disp.o)
                0x000000000054fb80                __intel_cpu_indicator_init
 .text          0x000000000054fdb0      0x260 /opt/intel/composer_xe_2013.3.163/compiler/lib/intel64/libirc.a(cpu_feature_dispx.o)
                0x000000000054fdb0                __intel_cpu_features_init_x
 .text          0x0000000000550010       0x90 /opt/intel/composer_xe_2013.3.163/compiler/lib/intel64/libirc.a(fastmemcpy.o)
                0x0000000000550010                _intel_fast_memcpy.A
                0x0000000000550020                _intel_fast_memcpy.J
                0x0000000000550030                _intel_fast_memcpy.M
                0x0000000000550040                _intel_fast_memcpy.P
                0x0000000000550050                _intel_fast_memcpy
 .text          0x00000000005500a0       0x50 /opt/intel/composer_xe_2013.3.163/compiler/lib/intel64/libirc.a(fastmemset.o)
                0x00000000005500a0                _intel_fast_memset.A
                0x00000000005500b0                _intel_fast_memset.J
                0x00000000005500c0                _intel_fast_memset
 .text          0x00000000005500f0       0xa0 /opt/intel/composer_xe_2013.3.163/compiler/lib/intel64/libirc.a(proc_init.o)
                0x00000000005500f0                __intel_new_proc_init
                0x0000000000550120                __intel_new_proc_init.H
                0x0000000000550130                __intel_new_proc_init.A
                0x0000000000550140                __intel_proc_init
                0x0000000000550170                __intel_proc_init.H
                0x0000000000550180                __intel_proc_init.A
 .text          0x0000000000550190       0xb0 /opt/intel/composer_xe_2013.3.163/compiler/lib/intel64/libirc.a(proc_init_utils.o)
                0x0000000000550190                __intel_proc_init_ftzdazule
 .text          0x0000000000550240     0x3120 /opt/intel/composer_xe_2013.3.163/compiler/lib/intel64/libirc.a(ia32_addsubq.o)
                0x0000000000551550                __addq
                0x00000000005515e0                __subq
 .text          0x0000000000553360     0x1650 /opt/intel/composer_xe_2013.3.163/compiler/lib/intel64/libirc.a(ia32_mulq.o)
                0x0000000000553360                __mulq.L
                0x0000000000553e70                __mulq.A
                0x0000000000554980                __mulq
 .text          0x00000000005549b0     0x1c30 /opt/intel/composer_xe_2013.3.163/compiler/lib/intel64/libirc.a(ia32_divq.o)
                0x00000000005549b0                __divq.L
                0x00000000005557b0                __divq.A
                0x00000000005565b0                __divq
 .text          0x00000000005565e0      0x450 /opt/intel/composer_xe_2013.3.163/compiler/lib/intel64/libirc.a(sse2_strcspn.o)
                0x00000000005565e0                __intel_sse2_strcspn
 .text          0x0000000000556a30      0x6b0 /opt/intel/composer_xe_2013.3.163/compiler/lib/intel64/libirc.a(sse2_strtok.o)
                0x0000000000556a30                __intel_sse2_strtok
 .text          0x00000000005570e0      0x140 /opt/intel/composer_xe_2013.3.163/compiler/lib/intel64/libirc.a(sse2_strcpy.o)
                0x00000000005570e0                __intel_sse2_strcpy
 .text          0x0000000000557220      0x190 /opt/intel/composer_xe_2013.3.163/compiler/lib/intel64/libirc.a(sse2_strncpy.o)
                0x0000000000557220                __intel_sse2_strncpy
 .text          0x00000000005573b0       0x30 /opt/intel/composer_xe_2013.3.163/compiler/lib/intel64/libirc.a(sse2_strlen.o)
                0x00000000005573b0                __intel_sse2_strlen
 .text          0x00000000005573e0       0x40 /opt/intel/composer_xe_2013.3.163/compiler/lib/intel64/libirc.a(sse2_strchr.o)
                0x00000000005573e0                __intel_sse2_strchr
 .text          0x0000000000557420      0x330 /opt/intel/composer_xe_2013.3.163/compiler/lib/intel64/libirc.a(sse2_strncmp.o)
                0x0000000000557420                __intel_sse2_strncmp
 .text          0x0000000000557750      0x280 /opt/intel/composer_xe_2013.3.163/compiler/lib/intel64/libirc.a(sse2_strcat.o)
                0x0000000000557750                __intel_sse2_strcat
 .text          0x00000000005579d0      0x300 /opt/intel/composer_xe_2013.3.163/compiler/lib/intel64/libirc.a(sse2_strncat.o)
                0x00000000005579d0                __intel_sse2_strncat
 .text          0x0000000000557cd0      0x160 /opt/intel/composer_xe_2013.3.163/compiler/lib/intel64/libirc.a(sse2_strdup.o)
                0x0000000000557cd0                __intel_sse2_strdup
 .text          0x0000000000557e30     0x17b0 /opt/intel/composer_xe_2013.3.163/compiler/lib/intel64/libirc.a(fast_memcpy_pp.o)
                0x0000000000557e30                __intel_memcpy
                0x0000000000557e30                __intel_new_memcpy
 .text          0x00000000005595e0     0x11e0 /opt/intel/composer_xe_2013.3.163/compiler/lib/intel64/libirc.a(fast_memset_pp.o)
                0x00000000005595e0                __intel_memset
                0x00000000005595e0                __intel_new_memset
 .text          0x000000000055a7c0        0x0 /opt/intel/composer_xe_2013.3.163/compiler/lib/intel64/libirc.a(intel_ssse3_memcpy.o)
 .text.ssse3    0x000000000055a7c0     0x29c5 /opt/intel/composer_xe_2013.3.163/compiler/lib/intel64/libirc.a(intel_ssse3_memcpy.o)
                0x000000000055a7c0                __intel_ssse3_memcpy
 *fill*         0x000000000055d185        0x3 
 .text          0x000000000055d188        0x0 /opt/intel/composer_xe_2013.3.163/compiler/lib/intel64/libirc.a(intel_ssse3_rep_memcpy.o)
 *fill*         0x000000000055d188        0x8 
 .text.ssse3    0x000000000055d190     0x2ab6 /opt/intel/composer_xe_2013.3.163/compiler/lib/intel64/libirc.a(intel_ssse3_rep_memcpy.o)
                0x000000000055d190                __intel_ssse3_rep_memcpy
 *fill*         0x000000000055fc46        0xa 
 .text          0x000000000055fc50      0x4e0 /opt/intel/composer_xe_2013.3.163/compiler/lib/intel64/libirc.a(irc_msg_support.o)
                0x000000000055fc50                __libirc_get_msg
                0x000000000055fe80                __libirc_print
 .text          0x0000000000560130      0x9b0 /opt/intel/composer_xe_2013.3.163/compiler/lib/intel64/libirc.a(fast_mem_ops.o)
                0x0000000000560130                __cacheSize
 .text          0x0000000000560ae0       0x72 /usr/lib64/libc_nonshared.a(elf-init.oS)
                0x0000000000560ae0                __libc_csu_init
                0x0000000000560b50                __libc_csu_fini
 *fill*         0x0000000000560b52        0xe 
 .text          0x0000000000560b60       0x10 /usr/lib64/libc_nonshared.a(stat.oS)
                0x0000000000560b60                __stat
                0x0000000000560b60                stat
 .text          0x0000000000560b70        0x0 /usr/lib/gcc/x86_64-mageia-linux-gnu/4.8.2/crtend.o
 .text          0x0000000000560b70        0x0 /usr/lib/gcc/x86_64-mageia-linux-gnu/4.8.2/../../../../lib64/crtn.o
 *(.gnu.warning)

.fini           0x0000000000560b70        0x9
 *(SORT(.fini))
 .fini          0x0000000000560b70        0x4 /usr/lib/gcc/x86_64-mageia-linux-gnu/4.8.2/../../../../lib64/crti.o
                0x0000000000560b70                _fini
 .fini          0x0000000000560b74        0x5 /usr/lib/gcc/x86_64-mageia-linux-gnu/4.8.2/../../../../lib64/crtn.o
                0x0000000000560b79                PROVIDE (__etext, .)
                0x0000000000560b79                PROVIDE (_etext, .)
                0x0000000000560b79                PROVIDE (etext, .)

.rodata         0x0000000000560b80    0x74bc0
 *(.rodata .rodata.* .gnu.linkonce.r.*)
 .rodata.cst4   0x0000000000560b80        0x4 /usr/lib/gcc/x86_64-mageia-linux-gnu/4.8.2/../../../../lib64/crt1.o
                0x0000000000560b80                _IO_stdin_used
 .rodata.str1.4
                0x0000000000560b84       0x3c DV.o
                                         0x40 (size before relaxing)
 .rodata.str1.32
                0x0000000000560bc0       0xf0 DV.o
 .rodata        0x0000000000560cb0       0xa0 reg.o
 *fill*         0x0000000000560d50       0x10 
 .rodata.str1.32
                0x0000000000560d60      0x532 reg.o
                                        0x540 (size before relaxing)
 *fill*         0x0000000000561292        0x2 
 .rodata.str1.4
                0x0000000000561294       0x33 reg.o
                                         0x40 (size before relaxing)
 *fill*         0x00000000005612c7        0x9 
 .rodata        0x00000000005612d0       0x20 misc.o
 .rodata.str1.4
                0x00000000005612f0      0x1cb instr.o
                                        0x1f4 (size before relaxing)
 *fill*         0x00000000005614bb        0x5 
 .rodata.str1.32
                0x00000000005614c0      0x8e2 instr.o
                                        0x900 (size before relaxing)
 *fill*         0x0000000000561da2        0xe 
 .rodata        0x0000000000561db0       0x30 instr.o
 .rodata        0x0000000000561de0      0xff0 misc_f77/misc_f77.o
 .rodata.str1.4
                0x0000000000562dd0      0x10a misc_f77/misc_f77.o
                                        0x1f8 (size before relaxing)
 *fill*         0x0000000000562eda        0x2 
 .rodata.str1.32
                0x0000000000562edc      0x1f3 misc_f77/misc_f77.o
                                        0x1f4 (size before relaxing)
 *fill*         0x00000000005630cf       0x11 
 .rodata.str1.32
                0x00000000005630e0     0x3c81 fncs.o
                                       0x3ca0 (size before relaxing)
 *fill*         0x0000000000566d61        0xf 
 .rodata        0x0000000000566d70      0x6f0 fncs.o
 .rodata.str1.4
                0x0000000000567460      0xd72 fncs.o
                                        0xde4 (size before relaxing)
 *fill*         0x00000000005681d2        0xe 
 .rodata.str1.32
                0x00000000005681e0      0x1ba s_iter.o
                                        0x1c0 (size before relaxing)
 *fill*         0x000000000056839a        0x6 
 .rodata        0x00000000005683a0      0x240 s_iter.o
 .rodata.str1.4
                0x00000000005685e0       0x42 s_iter.o
                                         0x48 (size before relaxing)
 *fill*         0x0000000000568622        0x2 
 .rodata.str1.4
                0x0000000000568624      0x8f0 DV_gui/DV_forms.o
                                        0x90c (size before relaxing)
 *fill*         0x0000000000568f14        0xc 
 .rodata.str1.32
                0x0000000000568f20      0x178 DV_gui/DV_forms.o
                                        0x180 (size before relaxing)
 .rodata.str1.4
                0x0000000000569098      0xecd DV_gui/DV_gui.o
                                        0xfa0 (size before relaxing)
 *fill*         0x0000000000569f65       0x1b 
 .rodata        0x0000000000569f80      0x400 DV_gui/DV_gui.o
                0x000000000056a378                no_GUI
 .rodata.str1.32
                0x000000000056a380     0x1d88 DV_gui/DV_gui.o
                                       0x1da0 (size before relaxing)
 .rodata.str1.32
                0x000000000056c108       0x25 vis/send_bbh_xyz.o
                                         0x28 (size before relaxing)
 *fill*         0x000000000056c12d        0x3 
 .rodata        0x000000000056c130       0x20 rnpl_diff/1d/updates_f1.o
 .rodata        0x000000000056c150       0x40 rnpl_diff/2d/updates_f2.o
 .rodata        0x000000000056c190       0x60 rnpl_diff/3d/updates_f3.o
 .rodata.str1.4
                0x000000000056c1f0       0x13 vis/send_accept_sdf.o
                                         0x24 (size before relaxing)
 *fill*         0x000000000056c203        0xd 
 .rodata        0x000000000056c210       0x20 vis/send_accept_sdf.o
 *fill*         0x000000000056c230       0x10 
 .rodata.str1.32
                0x000000000056c240      0x10f vis/send_accept_sdf.o
                                        0x120 (size before relaxing)
 *fill*         0x000000000056c34f        0x1 
 .rodata.str1.4
                0x000000000056c350      0x258 vis/send_gl_canvas.o
                                        0x27c (size before relaxing)
 *fill*         0x000000000056c5a8       0x18 
 .rodata        0x000000000056c5c0      0x840 vis/send_gl_canvas.o
 .rodata.str1.32
                0x000000000056ce00      0x6d2 vis/send_gl_canvas.o
                                        0x6e0 (size before relaxing)
 *fill*         0x000000000056d4d2        0x6 
 .rodata        0x000000000056d4d8      0x1d0 misc_f77/dc_clusterer.o
 .rodata.str1.4
                0x000000000056d6a8      0x126 misc_f77/dc_clusterer.o
                                        0x130 (size before relaxing)
 *fill*         0x000000000056d7ce        0x2 
 .rodata.str1.32
                0x000000000056d7d0       0x4e misc_f77/dc_clusterer.o
                                         0x50 (size before relaxing)
 *fill*         0x000000000056d81e        0x2 
 .rodata.str1.4
                0x000000000056d820       0x13 vis/scr_save.o
                                         0x14 (size before relaxing)
 *fill*         0x000000000056d833        0x1 
 .rodata.str1.32
                0x000000000056d834       0x5f vis/scr_save.o
                                         0x60 (size before relaxing)
 *fill*         0x000000000056d893        0xd 
 .rodata        0x000000000056d8a0      0x200 null_int.o
 .rodata.str1.4
                0x000000000056daa0      0x1fe null_int.o
                                        0x210 (size before relaxing)
 *fill*         0x000000000056dc9e        0x2 
 .rodata.str1.32
                0x000000000056dca0      0x337 null_int.o
                                        0x340 (size before relaxing)
 *fill*         0x000000000056dfd7        0x9 
 .rodata        0x000000000056dfe0       0xe0 geod_int.o
 .rodata.str1.4
                0x000000000056e0c0      0x210 geod_int.o
                                        0x21c (size before relaxing)
 *fill*         0x000000000056e2d0       0x10 
 .rodata.str1.32
                0x000000000056e2e0      0x33d geod_int.o
                                        0x340 (size before relaxing)
 *fill*         0x000000000056e61d        0x3 
 .rodata        0x000000000056e620      0x400 DV_calc/DV_calc.tab.o
 .rodata.str1.4
                0x000000000056ea20       0x21 DV_calc/DV_calc.tab.o
                                         0x28 (size before relaxing)
 *fill*         0x000000000056ea41       0x1f 
 .rodata        0x000000000056ea60      0xb20 DV_calc/lex.DV_calc.o
 .rodata.str1.4
                0x0000000000000000        0x4 DV_calc/lex.DV_calc.o
 .rodata.str1.32
                0x000000000056f580      0x1ef DV_calc/lex.DV_calc.o
                                        0x1f0 (size before relaxing)
 *fill*         0x000000000056f76f        0x1 
 .rodata.str1.4
                0x000000000056f770       0xcc DV_calc/parse.o
 *fill*         0x000000000056f83c        0x4 
 .rodata        0x000000000056f840      0x100 DV_calc/parse.o
                0x000000000056f910                tmp_prefix
 .rodata.str1.32
                0x000000000056f940      0x1b6 DV_calc/parse.o
                                        0x1c0 (size before relaxing)
 *fill*         0x000000000056faf6        0xa 
 .rodata        0x000000000056fb00       0x90 /usr/local/intel/lib/libbbhutil.a(bbhutil.o)
 .rodata.str1.32
                0x000000000056fb90      0x57b /usr/local/intel/lib/libbbhutil.a(bbhutil.o)
                                        0x57c (size before relaxing)
 *fill*         0x000000000057010b        0x1 
 .rodata.str1.4
                0x000000000057010c       0x73 /usr/local/intel/lib/libbbhutil.a(bbhutil.o)
                                         0x84 (size before relaxing)
 *fill*         0x000000000057017f        0x1 
 .rodata.str1.4
                0x0000000000570180       0x4e /usr/local/intel/lib/libbbhutil.a(cliser.o)
                                         0x50 (size before relaxing)
 *fill*         0x00000000005701ce        0x2 
 .rodata.str1.32
                0x00000000005701d0       0xcf /usr/local/intel/lib/libbbhutil.a(cliser.o)
                                         0xd0 (size before relaxing)
 *fill*         0x000000000057029f        0x1 
 .rodata        0x00000000005702a0     0x1d20 /usr/local/intel/lib/libbbhutil.a(sdf.o)
 .rodata.str1.32
                0x0000000000571fc0      0x2b7 /usr/local/intel/lib/libbbhutil.a(gpar.tab.o)
                                        0x2b8 (size before relaxing)
 .rodata.str1.4
                0x0000000000000000       0x4c /usr/local/intel/lib/libbbhutil.a(gpar.tab.o)
 *fill*         0x0000000000572277        0x9 
 .rodata        0x0000000000572280      0x520 /usr/local/intel/lib/libbbhutil.a(gpar.tab.o)
 .rodata        0x00000000005727a0      0xba0 /usr/local/intel/lib/libbbhutil.a(lex.gpar.o)
 .rodata.str1.4
                0x0000000000000000        0x8 /usr/local/intel/lib/libbbhutil.a(lex.gpar.o)
 .rodata.str1.32
                0x0000000000573340       0xdc /usr/local/intel/lib/libbbhutil.a(lex.gpar.o)
                                        0x1a4 (size before relaxing)
 .rodata.str1.4
                0x000000000057341c       0x1c /usr/local/intel/lib/libutilio.a(ctoirang.o)
                                         0x54 (size before relaxing)
 *fill*         0x0000000000573438        0x8 
 .rodata        0x0000000000573440       0x90 /usr/local/intel/lib/libutilio.a(ctoirang.o)
 .rodata.str1.32
                0x00000000005734d0       0x28 /usr/local/intel/lib/libutilio.a(ctoirang.o)
 .rodata.str1.32
                0x00000000005734f8      0x123 /usr/local/intel/lib/libutilio.a(utilexplorer_c.o)
                                        0x124 (size before relaxing)
 *fill*         0x000000000057361b        0x1 
 .rodata.str1.4
                0x000000000057361c       0x9d /usr/local/intel/lib/libutilio.a(utilexplorer_c.o)
                                         0xb4 (size before relaxing)
 *fill*         0x00000000005736b9        0x7 
 .rodata        0x00000000005736c0       0x30 /usr/local/intel/lib/libutilio.a(utilexplorer_c.o)
 .rodata        0x00000000005736f0      0xbc0 /opt/intel/composer_xe_2013.3.163/compiler/lib/intel64/libimf.a(atan2.o)
 .rodata        0x00000000005742b0       0x10 /opt/intel/composer_xe_2013.3.163/compiler/lib/intel64/libimf.a(f__powi4i4.o)
 .rodata.str1.4
                0x00000000005742c0      0x41a /opt/intel/composer_xe_2013.3.163/compiler/lib/intel64/libimf.a(libm_error.o)
                                        0x43c (size before relaxing)
 *fill*         0x00000000005746da        0x2 
 .rodata.str1.32
                0x00000000005746dc       0x48 /opt/intel/composer_xe_2013.3.163/compiler/lib/intel64/libimf.a(libm_error.o)
 *fill*         0x0000000000574724        0x4 
 .rodata        0x0000000000574728      0x900 /opt/intel/composer_xe_2013.3.163/compiler/lib/intel64/libimf.a(libm_error.o)
 *fill*         0x0000000000575028        0x8 
 .rodata        0x0000000000575030     0x11c0 /opt/intel/composer_xe_2013.3.163/compiler/lib/intel64/libimf.a(libm_sse2_sincos.o)
 .rodata        0x00000000005761f0      0xa60 /opt/intel/composer_xe_2013.3.163/compiler/lib/intel64/libimf.a(atan_ct.o)
 .rodata        0x0000000000576c50      0xa70 /opt/intel/composer_xe_2013.3.163/compiler/lib/intel64/libimf.a(atan_gen.o)
 .rodata        0x00000000005776c0      0x780 /opt/intel/composer_xe_2013.3.163/compiler/lib/intel64/libimf.a(cbrt_ct.o)
 .rodata        0x0000000000577e40      0xc68 /opt/intel/composer_xe_2013.3.163/compiler/lib/intel64/libimf.a(cbrt_gen.o)
 *fill*         0x0000000000578aa8        0x8 
 .rodata        0x0000000000578ab0       0x40 /opt/intel/composer_xe_2013.3.163/compiler/lib/intel64/libimf.a(ceil_ct.o)
 .rodata        0x0000000000578af0       0x40 /opt/intel/composer_xe_2013.3.163/compiler/lib/intel64/libimf.a(ceilf_ct.o)
 .rodata        0x0000000000578b30       0x14 /opt/intel/composer_xe_2013.3.163/compiler/lib/intel64/libimf.a(ceilf_gen.o)
 .rodata        0x0000000000578b44       0x20 /opt/intel/composer_xe_2013.3.163/compiler/lib/intel64/libimf.a(ceil_gen.o)
 *fill*         0x0000000000578b64        0xc 
 .rodata        0x0000000000578b70      0x950 /opt/intel/composer_xe_2013.3.163/compiler/lib/intel64/libimf.a(cos_ct.o)
 .rodata        0x00000000005794c0      0x950 /opt/intel/composer_xe_2013.3.163/compiler/lib/intel64/libimf.a(cos_gen.o)
 .rodata        0x0000000000579e10      0x940 /opt/intel/composer_xe_2013.3.163/compiler/lib/intel64/libimf.a(cos_pnr.o)
 .rodata        0x000000000057a750      0x820 /opt/intel/composer_xe_2013.3.163/compiler/lib/intel64/libimf.a(exp2f_ct.o)
 .rodata        0x000000000057af70       0x58 /opt/intel/composer_xe_2013.3.163/compiler/lib/intel64/libimf.a(exp2f_gen.o)
 *fill*         0x000000000057afc8        0x8 
 .rodata        0x000000000057afd0      0x4e0 /opt/intel/composer_xe_2013.3.163/compiler/lib/intel64/libimf.a(exp_ct.o)
 .rodata        0x000000000057b4b0      0x208 /opt/intel/composer_xe_2013.3.163/compiler/lib/intel64/libimf.a(expf_table.o)
                0x000000000057b4b0                __libm_expf_table_64
 *fill*         0x000000000057b6b8        0x8 
 .rodata        0x000000000057b6c0      0x4e0 /opt/intel/composer_xe_2013.3.163/compiler/lib/intel64/libimf.a(exp_gen.o)
 .rodata        0x000000000057bba0       0x50 /opt/intel/composer_xe_2013.3.163/compiler/lib/intel64/libimf.a(floor_ct.o)
 .rodata        0x000000000057bbf0       0x50 /opt/intel/composer_xe_2013.3.163/compiler/lib/intel64/libimf.a(floorf_ct.o)
 .rodata        0x000000000057bc40       0x14 /opt/intel/composer_xe_2013.3.163/compiler/lib/intel64/libimf.a(floorf_gen.o)
 .rodata        0x000000000057bc54       0x20 /opt/intel/composer_xe_2013.3.163/compiler/lib/intel64/libimf.a(floor_gen.o)
 *fill*         0x000000000057bc74        0xc 
 .rodata        0x000000000057bc80      0x230 /opt/intel/composer_xe_2013.3.163/compiler/lib/intel64/libimf.a(libm_reduce_pio2.o)
 .rodata        0x000000000057beb0      0x870 /opt/intel/composer_xe_2013.3.163/compiler/lib/intel64/libimf.a(log10_ct.o)
 .rodata        0x000000000057c720      0x810 /opt/intel/composer_xe_2013.3.163/compiler/lib/intel64/libimf.a(log10f_ct.o)
 .rodata        0x000000000057cf30       0xc8 /opt/intel/composer_xe_2013.3.163/compiler/lib/intel64/libimf.a(log10f_gen.o)
 *fill*         0x000000000057cff8        0x8 
 .rodata        0x000000000057d000      0x870 /opt/intel/composer_xe_2013.3.163/compiler/lib/intel64/libimf.a(log10_gen.o)
 .rodata        0x000000000057d870      0x850 /opt/intel/composer_xe_2013.3.163/compiler/lib/intel64/libimf.a(log_ct.o)
 .rodata        0x000000000057e0c0      0x800 /opt/intel/composer_xe_2013.3.163/compiler/lib/intel64/libimf.a(logf_table.o)
                0x000000000057e0c0                __libm_logf_table_256
 .rodata        0x000000000057e8c0      0x850 /opt/intel/composer_xe_2013.3.163/compiler/lib/intel64/libimf.a(log_gen.o)
 .rodata        0x000000000057f110     0x3300 /opt/intel/composer_xe_2013.3.163/compiler/lib/intel64/libimf.a(pow_ct.o)
 .rodata        0x0000000000582410     0x3a20 /opt/intel/composer_xe_2013.3.163/compiler/lib/intel64/libimf.a(pow_gen.o)
 *fill*         0x0000000000585e30       0x10 
 .rodata        0x0000000000585e40      0xc00 /opt/intel/composer_xe_2013.3.163/compiler/lib/intel64/libimf.a(rcp_table.o)
                0x0000000000585e40                __libm_rcp_table_256
                0x0000000000586240                __libm_double_rcp_table_256
 .rodata        0x0000000000586a40     0x1270 /opt/intel/composer_xe_2013.3.163/compiler/lib/intel64/libimf.a(sincos_ct.o)
 .rodata        0x0000000000587cb0      0x550 /opt/intel/composer_xe_2013.3.163/compiler/lib/intel64/libimf.a(sincosf_ct.o)
 .rodata        0x0000000000588200      0x4a0 /opt/intel/composer_xe_2013.3.163/compiler/lib/intel64/libimf.a(sincosf_gen.o)
 .rodata        0x00000000005886a0     0x11c0 /opt/intel/composer_xe_2013.3.163/compiler/lib/intel64/libimf.a(sincos_gen.o)
 .rodata        0x0000000000589860      0x960 /opt/intel/composer_xe_2013.3.163/compiler/lib/intel64/libimf.a(sin_ct.o)
 .rodata        0x000000000058a1c0      0x960 /opt/intel/composer_xe_2013.3.163/compiler/lib/intel64/libimf.a(sin_gen.o)
 .rodata        0x000000000058ab20      0x950 /opt/intel/composer_xe_2013.3.163/compiler/lib/intel64/libimf.a(sin_pnr.o)
 .rodata        0x000000000058b470     0x17b0 /opt/intel/composer_xe_2013.3.163/compiler/lib/intel64/libimf.a(tan_ct.o)
 .rodata        0x000000000058cc20     0x17b0 /opt/intel/composer_xe_2013.3.163/compiler/lib/intel64/libimf.a(tan_gen.o)
 .rodata.str1.4
                0x000000000058e3d0       0xbd /d/bh0/home/matt/autoconf/DV/DVCliser//libDVCliser.a(DVCliser.o)
                                         0xdc (size before relaxing)
 *fill*         0x000000000058e48d        0x3 
 .rodata.str1.32
                0x000000000058e490       0x4f /d/bh0/home/matt/autoconf/DV/DVCliser//libDVCliser.a(DVCliser.o)
                                         0x50 (size before relaxing)
 *fill*         0x000000000058e4df        0x1 
 .rodata        0x000000000058e4e0       0xf0 /opt/intel/composer_xe_2013.3.163/compiler/lib/intel64/libimf.a(acosdf.o)
 .rodata        0x000000000058e5d0       0xe0 /opt/intel/composer_xe_2013.3.163/compiler/lib/intel64/libimf.a(asindf.o)
 .rodata        0x000000000058e6b0       0x80 /opt/intel/composer_xe_2013.3.163/compiler/lib/intel64/libimf.a(atandf.o)
 .rodata        0x000000000058e730      0x660 /opt/intel/composer_xe_2013.3.163/compiler/lib/intel64/libimf.a(atand.o)
 .rodata        0x000000000058ed90       0x40 /opt/intel/composer_xe_2013.3.163/compiler/lib/intel64/libimf.a(ccosq.o)
 .rodata        0x000000000058edd0       0x40 /opt/intel/composer_xe_2013.3.163/compiler/lib/intel64/libimf.a(ceilq.o)
 .rodata        0x000000000058ee10        0x4 /opt/intel/composer_xe_2013.3.163/compiler/lib/intel64/libimf.a(cexp10f.o)
 *fill*         0x000000000058ee14        0xc 
 .rodata        0x000000000058ee20       0x30 /opt/intel/composer_xe_2013.3.163/compiler/lib/intel64/libimf.a(cexp10.o)
 .rodata        0x000000000058ee50       0x20 /opt/intel/composer_xe_2013.3.163/compiler/lib/intel64/libimf.a(cexp10q.o)
 .rodata        0x000000000058ee70       0x40 /opt/intel/composer_xe_2013.3.163/compiler/lib/intel64/libimf.a(cexpq.o)
 .rodata        0x000000000058eeb0       0x20 /opt/intel/composer_xe_2013.3.163/compiler/lib/intel64/libimf.a(clog10q.o)
 .rodata        0x000000000058eed0      0x130 /opt/intel/composer_xe_2013.3.163/compiler/lib/intel64/libimf.a(const_q_table.o)
                0x000000000058eed0                __libm128_const_q_table
 .rodata        0x000000000058f000     0x1680 /opt/intel/composer_xe_2013.3.163/compiler/lib/intel64/libimf.a(cotf.o)
 .rodata        0x0000000000590680     0x1680 /opt/intel/composer_xe_2013.3.163/compiler/lib/intel64/libimf.a(cot.o)
 .rodata        0x0000000000591d00       0x10 /opt/intel/composer_xe_2013.3.163/compiler/lib/intel64/libimf.a(csinhq.o)
 .rodata        0x0000000000591d10       0x40 /opt/intel/composer_xe_2013.3.163/compiler/lib/intel64/libimf.a(csinq.o)
 .rodata        0x0000000000591d50       0xb0 /opt/intel/composer_xe_2013.3.163/compiler/lib/intel64/libimf.a(csqrtq.o)
 .rodata        0x0000000000591e00       0x30 /opt/intel/composer_xe_2013.3.163/compiler/lib/intel64/libimf.a(ctanhq.o)
 .rodata        0x0000000000591e30       0x70 /opt/intel/composer_xe_2013.3.163/compiler/lib/intel64/libimf.a(ctanq.o)
 .rodata        0x0000000000591ea0     0x4da0 /opt/intel/composer_xe_2013.3.163/compiler/lib/intel64/libimf.a(dpml_ux_bessel.o)
 .rodata        0x0000000000596c40      0x560 /opt/intel/composer_xe_2013.3.163/compiler/lib/intel64/libimf.a(dpml_ux_erf.o)
 .rodata        0x00000000005971a0      0x390 /opt/intel/composer_xe_2013.3.163/compiler/lib/intel64/libimf.a(dpml_ux_exp.o)
 .rodata        0x0000000000597530       0x30 /opt/intel/composer_xe_2013.3.163/compiler/lib/intel64/libimf.a(dpml_ux_int.o)
 .rodata        0x0000000000597560      0x3d0 /opt/intel/composer_xe_2013.3.163/compiler/lib/intel64/libimf.a(dpml_ux_lgamma.o)
 .rodata        0x0000000000597930      0x210 /opt/intel/composer_xe_2013.3.163/compiler/lib/intel64/libimf.a(dpml_ux_log.o)
 .rodata        0x0000000000597b40      0x150 /opt/intel/composer_xe_2013.3.163/compiler/lib/intel64/libimf.a(dpml_ux_mod.o)
 .rodata        0x0000000000597c90       0x40 /opt/intel/composer_xe_2013.3.163/compiler/lib/intel64/libimf.a(dpml_ux_ops_64.o)
 .rodata        0x0000000000597cd0       0xf0 /opt/intel/composer_xe_2013.3.163/compiler/lib/intel64/libimf.a(dpml_ux_ops.o)
                0x0000000000597ce0                __x_constants__
 .rodata        0x0000000000597dc0       0x70 /opt/intel/composer_xe_2013.3.163/compiler/lib/intel64/libimf.a(dpml_ux_powi.o)
 .rodata        0x0000000000597e30       0xd0 /opt/intel/composer_xe_2013.3.163/compiler/lib/intel64/libimf.a(dpml_ux_sqrt.o)
 .rodata        0x0000000000597f00      0x410 /opt/intel/composer_xe_2013.3.163/compiler/lib/intel64/libimf.a(dpml_ux_trig.o)
 .rodata        0x0000000000598310       0x40 /opt/intel/composer_xe_2013.3.163/compiler/lib/intel64/libimf.a(fabsq.o)
 .rodata        0x0000000000598350       0x40 /opt/intel/composer_xe_2013.3.163/compiler/lib/intel64/libimf.a(floorq.o)
 .rodata        0x0000000000598390       0x40 /opt/intel/composer_xe_2013.3.163/compiler/lib/intel64/libimf.a(frexpq.o)
 .rodata        0x00000000005983d0      0x788 /opt/intel/composer_xe_2013.3.163/compiler/lib/intel64/libimf.a(intel_quad_exception.o)
                0x00000000005989b8                __dpml_globals_table
 *fill*         0x0000000000598b58        0x8 
 .rodata        0x0000000000598b60       0x80 /opt/intel/composer_xe_2013.3.163/compiler/lib/intel64/libimf.a(ldexpq.o)
 .rodata        0x0000000000598be0       0x90 /opt/intel/composer_xe_2013.3.163/compiler/lib/intel64/libimf.a(libm_exp10_k64.o)
 .rodata        0x0000000000598c70       0x30 /opt/intel/composer_xe_2013.3.163/compiler/lib/intel64/libimf.a(libm_mul_k64.o)
 .rodata        0x0000000000598ca0      0x8c0 /opt/intel/composer_xe_2013.3.163/compiler/lib/intel64/libimf.a(libm_sincosln10_k64.o)
 .rodata        0x0000000000599560       0x60 /opt/intel/composer_xe_2013.3.163/compiler/lib/intel64/libimf.a(nextafterq.o)
 .rodata        0x00000000005995c0       0x50 /opt/intel/composer_xe_2013.3.163/compiler/lib/intel64/libimf.a(rintq.o)
 .rodata        0x0000000000599610       0x80 /opt/intel/composer_xe_2013.3.163/compiler/lib/intel64/libimf.a(scalbnq.o)
 .rodata        0x0000000000599690     0x1000 /opt/intel/composer_xe_2013.3.163/compiler/lib/intel64/libimf.a(sqrt_tab_t.o)
                0x0000000000599690                __sqrt_t_table
 .rodata        0x000000000059a690      0x838 /opt/intel/composer_xe_2013.3.163/compiler/lib/intel64/libimf.a(trig_pi_bits.o)
                0x000000000059a690                __four_over_pi
 *fill*         0x000000000059aec8        0x8 
 .rodata        0x000000000059aed0       0x40 /opt/intel/composer_xe_2013.3.163/compiler/lib/intel64/libimf.a(truncq.o)
 .rodata        0x000000000059af10     0x19e0 /opt/intel/composer_xe_2013.3.163/compiler/lib/intel64/libimf.a(acosd_ct.o)
 .rodata        0x000000000059c8f0     0x14a0 /opt/intel/composer_xe_2013.3.163/compiler/lib/intel64/libimf.a(acosd_gen.o)
 .rodata        0x000000000059dd90      0x380 /opt/intel/composer_xe_2013.3.163/compiler/lib/intel64/libimf.a(acosdq_ct.o)
 .rodata        0x000000000059e110      0x350 /opt/intel/composer_xe_2013.3.163/compiler/lib/intel64/libimf.a(acosdq_gen.o)
 .rodata        0x000000000059e460      0x220 /opt/intel/composer_xe_2013.3.163/compiler/lib/intel64/libimf.a(acoshq_ct.o)
 .rodata        0x000000000059e680      0x200 /opt/intel/composer_xe_2013.3.163/compiler/lib/intel64/libimf.a(acoshq_gen.o)
 .rodata        0x000000000059e880      0x340 /opt/intel/composer_xe_2013.3.163/compiler/lib/intel64/libimf.a(acosq_ct.o)
 .rodata        0x000000000059ebc0      0x310 /opt/intel/composer_xe_2013.3.163/compiler/lib/intel64/libimf.a(acosq_gen.o)
 .rodata        0x000000000059eed0     0x1ed0 /opt/intel/composer_xe_2013.3.163/compiler/lib/intel64/libimf.a(asind_ct.o)
 .rodata        0x00000000005a0da0     0x14a0 /opt/intel/composer_xe_2013.3.163/compiler/lib/intel64/libimf.a(asind_gen.o)
 .rodata        0x00000000005a2240      0x360 /opt/intel/composer_xe_2013.3.163/compiler/lib/intel64/libimf.a(asindq_ct.o)
 .rodata        0x00000000005a25a0      0x330 /opt/intel/composer_xe_2013.3.163/compiler/lib/intel64/libimf.a(asindq_gen.o)
 .rodata        0x00000000005a28d0      0x450 /opt/intel/composer_xe_2013.3.163/compiler/lib/intel64/libimf.a(asinhq_ct.o)
 .rodata        0x00000000005a2d20      0x420 /opt/intel/composer_xe_2013.3.163/compiler/lib/intel64/libimf.a(asinhq_gen.o)
 .rodata        0x00000000005a3140      0x320 /opt/intel/composer_xe_2013.3.163/compiler/lib/intel64/libimf.a(asinq_ct.o)
 .rodata        0x00000000005a3460      0x2f0 /opt/intel/composer_xe_2013.3.163/compiler/lib/intel64/libimf.a(asinq_gen.o)
 .rodata        0x00000000005a3750      0x210 /opt/intel/composer_xe_2013.3.163/compiler/lib/intel64/libimf.a(atan2dq_ct.o)
 .rodata        0x00000000005a3960      0x1e0 /opt/intel/composer_xe_2013.3.163/compiler/lib/intel64/libimf.a(atan2dq_gen.o)
 .rodata        0x00000000005a3b40      0x1f0 /opt/intel/composer_xe_2013.3.163/compiler/lib/intel64/libimf.a(atan2q_ct.o)
 .rodata        0x00000000005a3d30      0x1c0 /opt/intel/composer_xe_2013.3.163/compiler/lib/intel64/libimf.a(atan2q_gen.o)
 .rodata        0x00000000005a3ef0      0x350 /opt/intel/composer_xe_2013.3.163/compiler/lib/intel64/libimf.a(atandq_ct.o)
 .rodata        0x00000000005a4240      0x320 /opt/intel/composer_xe_2013.3.163/compiler/lib/intel64/libimf.a(atandq_gen.o)
 .rodata        0x00000000005a4560      0x300 /opt/intel/composer_xe_2013.3.163/compiler/lib/intel64/libimf.a(atanhq_ct.o)
 .rodata        0x00000000005a4860      0x2d0 /opt/intel/composer_xe_2013.3.163/compiler/lib/intel64/libimf.a(atanhq_gen.o)
 .rodata        0x00000000005a4b30      0x310 /opt/intel/composer_xe_2013.3.163/compiler/lib/intel64/libimf.a(atanq_ct.o)
 .rodata        0x00000000005a4e40      0x2e0 /opt/intel/composer_xe_2013.3.163/compiler/lib/intel64/libimf.a(atanq_gen.o)
 .rodata        0x00000000005a5120     0x4020 /opt/intel/composer_xe_2013.3.163/compiler/lib/intel64/libimf.a(atanq_table.o)
                0x00000000005a5120                __libm128_atanq_table_128x
 .rodata        0x00000000005a9140       0x70 /opt/intel/composer_xe_2013.3.163/compiler/lib/intel64/libimf.a(cbrtq_ct.o)
 .rodata        0x00000000005a91b0       0x50 /opt/intel/composer_xe_2013.3.163/compiler/lib/intel64/libimf.a(cbrtq_gen.o)
 .rodata        0x00000000005a9200       0x40 /opt/intel/composer_xe_2013.3.163/compiler/lib/intel64/libimf.a(copysignq.o)
 .rodata        0x00000000005a9240      0x160 /opt/intel/composer_xe_2013.3.163/compiler/lib/intel64/libimf.a(cosd_ct.o)
 .rodata        0x00000000005a93a0      0x680 /opt/intel/composer_xe_2013.3.163/compiler/lib/intel64/libimf.a(cosdf_ct.o)
 .rodata        0x00000000005a9a20       0x90 /opt/intel/composer_xe_2013.3.163/compiler/lib/intel64/libimf.a(cosdf_gen.o)
 .rodata        0x00000000005a9ab0      0x630 /opt/intel/composer_xe_2013.3.163/compiler/lib/intel64/libimf.a(cosd_gen.o)
 .rodata        0x00000000005aa0e0      0x200 /opt/intel/composer_xe_2013.3.163/compiler/lib/intel64/libimf.a(cosdq_ct.o)
 .rodata        0x00000000005aa2e0      0x1d0 /opt/intel/composer_xe_2013.3.163/compiler/lib/intel64/libimf.a(cosdq_gen.o)
 .rodata        0x00000000005aa4b0      0x400 /opt/intel/composer_xe_2013.3.163/compiler/lib/intel64/libimf.a(coshq_ct.o)
 .rodata        0x00000000005aa8b0      0x3d0 /opt/intel/composer_xe_2013.3.163/compiler/lib/intel64/libimf.a(coshq_gen.o)
 .rodata        0x00000000005aac80      0x6e0 /opt/intel/composer_xe_2013.3.163/compiler/lib/intel64/libimf.a(cosq_ct.o)
 .rodata        0x00000000005ab360      0x6b0 /opt/intel/composer_xe_2013.3.163/compiler/lib/intel64/libimf.a(cosq_gen.o)
 .rodata        0x00000000005aba10      0x7a0 /opt/intel/composer_xe_2013.3.163/compiler/lib/intel64/libimf.a(cotd_ct.o)
 .rodata        0x00000000005ac1b0      0x3b0 /opt/intel/composer_xe_2013.3.163/compiler/lib/intel64/libimf.a(cotdf_ct.o)
 .rodata        0x00000000005ac560      0x380 /opt/intel/composer_xe_2013.3.163/compiler/lib/intel64/libimf.a(cotdf_gen.o)
 .rodata        0x00000000005ac8e0      0x370 /opt/intel/composer_xe_2013.3.163/compiler/lib/intel64/libimf.a(cotd_gen.o)
 .rodata        0x00000000005acc50      0x290 /opt/intel/composer_xe_2013.3.163/compiler/lib/intel64/libimf.a(cotdq_ct.o)
 .rodata        0x00000000005acee0      0x260 /opt/intel/composer_xe_2013.3.163/compiler/lib/intel64/libimf.a(cotdq_gen.o)
 .rodata        0x00000000005ad140      0x870 /opt/intel/composer_xe_2013.3.163/compiler/lib/intel64/libimf.a(cotq_ct.o)
 .rodata        0x00000000005ad9b0      0x840 /opt/intel/composer_xe_2013.3.163/compiler/lib/intel64/libimf.a(cotq_gen.o)
 .rodata        0x00000000005ae1f0      0x490 /opt/intel/composer_xe_2013.3.163/compiler/lib/intel64/libimf.a(exp10q_ct.o)
 .rodata        0x00000000005ae680      0x470 /opt/intel/composer_xe_2013.3.163/compiler/lib/intel64/libimf.a(exp10q_gen.o)
 .rodata        0x00000000005aeaf0      0x190 /opt/intel/composer_xe_2013.3.163/compiler/lib/intel64/libimf.a(exp2q_ct.o)
 .rodata        0x00000000005aec80      0x170 /opt/intel/composer_xe_2013.3.163/compiler/lib/intel64/libimf.a(exp2q_gen.o)
 .rodata        0x00000000005aedf0      0x170 /opt/intel/composer_xe_2013.3.163/compiler/lib/intel64/libimf.a(expq_ct.o)
 .rodata        0x00000000005aef60      0x150 /opt/intel/composer_xe_2013.3.163/compiler/lib/intel64/libimf.a(expq_gen.o)
 .rodata        0x00000000005af0b0     0x2040 /opt/intel/composer_xe_2013.3.163/compiler/lib/intel64/libimf.a(expq_tm1z_table.o)
                0x00000000005af0b0                __libm128_expq_tm1z_table
 .rodata        0x00000000005b10f0     0x2040 /opt/intel/composer_xe_2013.3.163/compiler/lib/intel64/libimf.a(expq_tz_table.o)
                0x00000000005b10f0                __libm128_expq_tz_table
 .rodata        0x00000000005b3130      0xe28 /opt/intel/composer_xe_2013.3.163/compiler/lib/intel64/libimf.a(exp_table.o)
                0x00000000005b3130                __libm_exp_hi_table_64
                0x00000000005b3338                __libm_exp_mi_table_64
                0x00000000005b3540                __libm_exp_lo_table_64
                0x00000000005b3748                __libm_exp_table_128
 *fill*         0x00000000005b3f58        0x8 
 .rodata        0x00000000005b3f60       0xc0 /opt/intel/composer_xe_2013.3.163/compiler/lib/intel64/libimf.a(hypotq_ct.o)
 .rodata        0x00000000005b4020       0xb0 /opt/intel/composer_xe_2013.3.163/compiler/lib/intel64/libimf.a(hypotq_gen.o)
 .rodata        0x00000000005b40d0       0x40 /opt/intel/composer_xe_2013.3.163/compiler/lib/intel64/libimf.a(libm128_basics.o)
 .rodata        0x00000000005b4110       0x20 /opt/intel/composer_xe_2013.3.163/compiler/lib/intel64/libimf.a(libm128_l_ops.o)
 .rodata        0x00000000005b4130     0x2250 /opt/intel/composer_xe_2013.3.163/compiler/lib/intel64/libimf.a(libm128_reduce_pi04q.o)
 .rodata        0x00000000005b6380       0x60 /opt/intel/composer_xe_2013.3.163/compiler/lib/intel64/libimf.a(libm128_x_ops.o)
 .rodata        0x00000000005b63e0      0x230 /opt/intel/composer_xe_2013.3.163/compiler/lib/intel64/libimf.a(libm_reduce_pio2ln10.o)
 .rodata        0x00000000005b6610      0xac0 /opt/intel/composer_xe_2013.3.163/compiler/lib/intel64/libimf.a(log10q_ct.o)
 .rodata        0x00000000005b70d0      0xaa0 /opt/intel/composer_xe_2013.3.163/compiler/lib/intel64/libimf.a(log10q_gen.o)
 .rodata        0x00000000005b7b70      0x3c0 /opt/intel/composer_xe_2013.3.163/compiler/lib/intel64/libimf.a(log2q_ct.o)
 .rodata        0x00000000005b7f30      0x3a0 /opt/intel/composer_xe_2013.3.163/compiler/lib/intel64/libimf.a(log2q_gen.o)
 .rodata        0x00000000005b82d0      0x390 /opt/intel/composer_xe_2013.3.163/compiler/lib/intel64/libimf.a(logq_ct.o)
 .rodata        0x00000000005b8660      0x390 /opt/intel/composer_xe_2013.3.163/compiler/lib/intel64/libimf.a(logq_gen.o)
 .rodata        0x00000000005b89f0     0x2820 /opt/intel/composer_xe_2013.3.163/compiler/lib/intel64/libimf.a(logq_hl2z_table.o)
                0x00000000005b89f0                __libm128_logq_hl2z_table
 .rodata        0x00000000005bb210     0x2820 /opt/intel/composer_xe_2013.3.163/compiler/lib/intel64/libimf.a(logq_hlgz_table.o)
                0x00000000005bb210                __libm128_logq_hlgz_table
 .rodata        0x00000000005bda30     0x2820 /opt/intel/composer_xe_2013.3.163/compiler/lib/intel64/libimf.a(logq_hlnz_table.o)
                0x00000000005bda30                __libm128_logq_hlnz_table
 .rodata        0x00000000005c0250      0x610 /opt/intel/composer_xe_2013.3.163/compiler/lib/intel64/libimf.a(logq_zg_table.o)
                0x00000000005c0250                __libm128_logq_z_table
                0x00000000005c0450                __libm128_logq_g_table
 .rodata        0x00000000005c0860      0x970 /opt/intel/composer_xe_2013.3.163/compiler/lib/intel64/libimf.a(powq_ct.o)
 .rodata        0x00000000005c11d0      0x940 /opt/intel/composer_xe_2013.3.163/compiler/lib/intel64/libimf.a(powq_gen.o)
 .rodata        0x00000000005c1b10      0x400 /opt/intel/composer_xe_2013.3.163/compiler/lib/intel64/libimf.a(rcpq_table.o)
                0x00000000005c1b10                __libm128_rcpq_table_256f
 .rodata        0x00000000005c1f10       0x40 /opt/intel/composer_xe_2013.3.163/compiler/lib/intel64/libimf.a(roundq.o)
 .rodata        0x00000000005c1f50      0x400 /opt/intel/composer_xe_2013.3.163/compiler/lib/intel64/libimf.a(scaleq_table.o)
                0x00000000005c1f50                __libm128_scaleq_table_256x
 .rodata        0x00000000005c2350      0xb60 /opt/intel/composer_xe_2013.3.163/compiler/lib/intel64/libimf.a(sincosdq_table.o)
                0x00000000005c2350                __libm128_sincosdq_table_90x
 .rodata        0x00000000005c2eb0      0xb40 /opt/intel/composer_xe_2013.3.163/compiler/lib/intel64/libimf.a(sincosd_table.o)
                0x00000000005c2eb0                __libm_sindl_cosdl_table
 .rodata        0x00000000005c39f0     0x4020 /opt/intel/composer_xe_2013.3.163/compiler/lib/intel64/libimf.a(sincosq_table.o)
                0x00000000005c39f0                __libm128_sincosq_table_512x
 .rodata        0x00000000005c7a10      0x180 /opt/intel/composer_xe_2013.3.163/compiler/lib/intel64/libimf.a(sind_ct.o)
 .rodata        0x00000000005c7b90      0x680 /opt/intel/composer_xe_2013.3.163/compiler/lib/intel64/libimf.a(sindf_ct.o)
 .rodata        0x00000000005c8210       0x90 /opt/intel/composer_xe_2013.3.163/compiler/lib/intel64/libimf.a(sindf_gen.o)
 .rodata        0x00000000005c82a0      0x630 /opt/intel/composer_xe_2013.3.163/compiler/lib/intel64/libimf.a(sind_gen.o)
 .rodata        0x00000000005c88d0      0x220 /opt/intel/composer_xe_2013.3.163/compiler/lib/intel64/libimf.a(sindq_ct.o)
 .rodata        0x00000000005c8af0      0x1f0 /opt/intel/composer_xe_2013.3.163/compiler/lib/intel64/libimf.a(sindq_gen.o)
 .rodata        0x00000000005c8ce0      0x400 /opt/intel/composer_xe_2013.3.163/compiler/lib/intel64/libimf.a(sinhq_ct.o)
 .rodata        0x00000000005c90e0      0x3d0 /opt/intel/composer_xe_2013.3.163/compiler/lib/intel64/libimf.a(sinhq_gen.o)
 .rodata        0x00000000005c94b0      0x6e0 /opt/intel/composer_xe_2013.3.163/compiler/lib/intel64/libimf.a(sinq_ct.o)
 .rodata        0x00000000005c9b90      0x6b0 /opt/intel/composer_xe_2013.3.163/compiler/lib/intel64/libimf.a(sinq_gen.o)
 .rodata        0x00000000005ca240     0x16c0 /opt/intel/composer_xe_2013.3.163/compiler/lib/intel64/libimf.a(tancotdq_table.o)
                0x00000000005ca240                __libm128_tancotdq_table1_90x
                0x00000000005cada0                __libm128_tancotdq_table2_90x
 .rodata        0x00000000005cb900      0x790 /opt/intel/composer_xe_2013.3.163/compiler/lib/intel64/libimf.a(tand_ct.o)
 .rodata        0x00000000005cc090      0x3b0 /opt/intel/composer_xe_2013.3.163/compiler/lib/intel64/libimf.a(tandf_ct.o)
 .rodata        0x00000000005cc440      0x380 /opt/intel/composer_xe_2013.3.163/compiler/lib/intel64/libimf.a(tandf_gen.o)
 .rodata        0x00000000005cc7c0      0x370 /opt/intel/composer_xe_2013.3.163/compiler/lib/intel64/libimf.a(tand_gen.o)
 .rodata        0x00000000005ccb30      0x280 /opt/intel/composer_xe_2013.3.163/compiler/lib/intel64/libimf.a(tandq_ct.o)
 .rodata        0x00000000005ccdb0      0x250 /opt/intel/composer_xe_2013.3.163/compiler/lib/intel64/libimf.a(tandq_gen.o)
 .rodata        0x00000000005cd000      0x550 /opt/intel/composer_xe_2013.3.163/compiler/lib/intel64/libimf.a(tanhq_ct.o)
 .rodata        0x00000000005cd550      0x520 /opt/intel/composer_xe_2013.3.163/compiler/lib/intel64/libimf.a(tanhq_gen.o)
 .rodata        0x00000000005cda70      0x860 /opt/intel/composer_xe_2013.3.163/compiler/lib/intel64/libimf.a(tanq_ct.o)
 .rodata        0x00000000005ce2d0      0x830 /opt/intel/composer_xe_2013.3.163/compiler/lib/intel64/libimf.a(tanq_gen.o)
 .rodata        0x00000000005ceb00     0x2020 /opt/intel/composer_xe_2013.3.163/compiler/lib/intel64/libimf.a(expq_table.o)
                0x00000000005ceb00                __libm128_expq_table_256m1x
 .rodata        0x00000000005d0b20       0x80 /opt/intel/composer_xe_2013.3.163/compiler/lib/intel64/libimf.a(invsqrtl.o)
 .rodata        0x00000000005d0ba0       0x50 /opt/intel/composer_xe_2013.3.163/compiler/lib/intel64/libimf.a(libm128_y_ops.o)
 .rodata        0x00000000005d0bf0     0x3600 /opt/intel/composer_xe_2013.3.163/compiler/lib/intel64/libimf.a(logq_table.o)
                0x00000000005d0bf0                __libm128_logq_table_256x
 .rodata        0x00000000005d41f0        0x8 /opt/intel/composer_xe_2013.3.163/compiler/lib/intel64/libirc.a(qcomp.o)
 .rodata        0x00000000005d41f8       0x18 /opt/intel/composer_xe_2013.3.163/compiler/lib/intel64/libirc.a(q2ints.o)
 .rodata        0x00000000005d4210        0xc /opt/intel/composer_xe_2013.3.163/compiler/lib/intel64/libirc.a(fp2q.o)
 *fill*         0x00000000005d421c        0x4 
 .rodata        0x00000000005d4220       0x28 /opt/intel/composer_xe_2013.3.163/compiler/lib/intel64/libirc.a(q2fp.o)
 *fill*         0x00000000005d4248       0x18 
 .rodata.str1.32
                0x00000000005d4260      0x193 /opt/intel/composer_xe_2013.3.163/compiler/lib/intel64/libirc.a(tbk_display.o)
                                        0x1a0 (size before relaxing)
 *fill*         0x00000000005d43f3        0x1 
 .rodata.str1.4
                0x00000000005d43f4       0x27 /opt/intel/composer_xe_2013.3.163/compiler/lib/intel64/libirc.a(tbk_display.o)
                                         0x28 (size before relaxing)
 *fill*         0x00000000005d441b        0x1 
 .rodata.str1.4
                0x00000000005d441c       0x34 /opt/intel/composer_xe_2013.3.163/compiler/lib/intel64/libirc.a(tbk_backtrace.o)
                                         0x3c (size before relaxing)
 .rodata        0x00000000005d4450        0x8 /opt/intel/composer_xe_2013.3.163/compiler/lib/intel64/libirc.a(tbk_backtrace.o)
 *fill*         0x00000000005d4458        0x8 
 .rodata        0x00000000005d4460       0xa0 /opt/intel/composer_xe_2013.3.163/compiler/lib/intel64/libirc.a(ia32_addsubq.o)
 .rodata        0x00000000005d4500       0x90 /opt/intel/composer_xe_2013.3.163/compiler/lib/intel64/libirc.a(ia32_mulq.o)
 .rodata        0x00000000005d4590       0x90 /opt/intel/composer_xe_2013.3.163/compiler/lib/intel64/libirc.a(ia32_divq.o)
 .rodata.ssse3  0x00000000005d4620      0x1c0 /opt/intel/composer_xe_2013.3.163/compiler/lib/intel64/libirc.a(intel_ssse3_memcpy.o)
 .rodata.ssse3  0x00000000005d47e0      0x500 /opt/intel/composer_xe_2013.3.163/compiler/lib/intel64/libirc.a(intel_ssse3_rep_memcpy.o)
 .rodata.str1.4
                0x00000000005d4ce0      0x198 /opt/intel/composer_xe_2013.3.163/compiler/lib/intel64/libirc.a(irc_msg_support.o)
                                        0x1b0 (size before relaxing)
 *fill*         0x00000000005d4e78        0x8 
 .rodata.str1.32
                0x00000000005d4e80      0x8a0 /opt/intel/composer_xe_2013.3.163/compiler/lib/intel64/libirc.a(irc_msg_support.o)
 .rodata        0x00000000005d5720       0x20 /opt/intel/composer_xe_2013.3.163/compiler/lib/intel64/libirc.a(fast_mem_ops.o)

.rodata1
 *(.rodata1)

.eh_frame_hdr   0x00000000005d5740     0x2a44
 *(.eh_frame_hdr)
 .eh_frame_hdr  0x00000000005d5740     0x2a44 /usr/lib/gcc/x86_64-mageia-linux-gnu/4.8.2/../../../../lib64/crt1.o

.eh_frame       0x00000000005d8188    0x1e5d4
 *(.eh_frame)
 .eh_frame      0x00000000005d8188       0x30 /usr/lib/gcc/x86_64-mageia-linux-gnu/4.8.2/../../../../lib64/crt1.o
 .eh_frame      0x00000000005d81b8       0x40 /usr/lib/gcc/x86_64-mageia-linux-gnu/4.8.2/../../../../lib64/crt1.o
 .eh_frame      0x00000000005d81f8       0xe8 DV.o
 .eh_frame      0x00000000005d82e0      0x980 reg.o
                                        0x998 (size before relaxing)
 .eh_frame      0x00000000005d8c60       0xf0 misc.o
                                        0x108 (size before relaxing)
 .eh_frame      0x00000000005d8d50      0x528 instr.o
                                        0x540 (size before relaxing)
 .eh_frame      0x00000000005d9278      0xed8 misc_f77/misc_f77.o
                                        0xef0 (size before relaxing)
 .eh_frame      0x00000000005da150     0x3d50 fncs.o
                                       0x3d68 (size before relaxing)
 .eh_frame      0x00000000005ddea0      0x218 s_iter.o
                                        0x230 (size before relaxing)
 .eh_frame      0x00000000005de0b8      0x2a0 DV_gui/DV_forms.o
                                        0x2b8 (size before relaxing)
 .eh_frame      0x00000000005de358     0x37c8 DV_gui/DV_gui.o
                                       0x37e0 (size before relaxing)
 .eh_frame      0x00000000005e1b20       0x18 vis/send_bbh_xyz.o
                                         0x30 (size before relaxing)
 .eh_frame      0x00000000005e1b38       0x30 rnpl_diff/1d/updates_f1.o
                                         0x48 (size before relaxing)
 .eh_frame      0x00000000005e1b68      0x170 rnpl_diff/2d/updates_f2.o
                                        0x188 (size before relaxing)
 .eh_frame      0x00000000005e1cd8      0x258 rnpl_diff/3d/updates_f3.o
                                        0x270 (size before relaxing)
 .eh_frame      0x00000000005e1f30      0x138 vis/send_accept_sdf.o
                                        0x150 (size before relaxing)
 .eh_frame      0x00000000005e2068      0xc58 vis/send_gl_canvas.o
                                        0xc70 (size before relaxing)
 .eh_frame      0x00000000005e2cc0       0x70 misc_f77/2Dclusterer.o
                                         0x88 (size before relaxing)
 .eh_frame      0x00000000005e2d30      0x6e0 misc_f77/dc_clusterer.o
                                        0x6f8 (size before relaxing)
 .eh_frame      0x00000000005e3410       0x90 vis/scr_save.o
                                         0xa8 (size before relaxing)
 .eh_frame      0x00000000005e34a0      0x160 null_int.o
                                        0x178 (size before relaxing)
 .eh_frame      0x00000000005e3600      0x1d0 geod_int.o
                                        0x1e8 (size before relaxing)
 .eh_frame      0x00000000005e37d0       0x80 DV_calc/DV_calc.tab.o
                                         0x98 (size before relaxing)
 .eh_frame      0x00000000005e3850      0xa20 DV_calc/lex.DV_calc.o
                                        0xa38 (size before relaxing)
 .eh_frame      0x00000000005e4270      0x2a8 DV_calc/parse.o
                                        0x2c0 (size before relaxing)
 .eh_frame      0x00000000005e4518     0x10f0 /usr/local/intel/lib/libbbhutil.a(bbhutil.o)
                                       0x1108 (size before relaxing)
 .eh_frame      0x00000000005e5608      0x288 /usr/local/intel/lib/libbbhutil.a(cliser.o)
                                        0x2a0 (size before relaxing)
 .eh_frame      0x00000000005e5890     0x1338 /usr/local/intel/lib/libbbhutil.a(sdf.o)
                                       0x1350 (size before relaxing)
 .eh_frame      0x00000000005e6bc8      0x360 /usr/local/intel/lib/libbbhutil.a(gpar.tab.o)
                                        0x378 (size before relaxing)
 .eh_frame      0x00000000005e6f28      0x808 /usr/local/intel/lib/libbbhutil.a(lex.gpar.o)
                                        0x820 (size before relaxing)
 .eh_frame      0x00000000005e7730      0x868 /usr/local/intel/lib/libutilio.a(ctoirang.o)
                                        0x880 (size before relaxing)
 .eh_frame      0x00000000005e7f98      0x148 /usr/local/intel/lib/libutilio.a(utilexplorer_c.o)
                                        0x160 (size before relaxing)
 .eh_frame      0x00000000005e80e0       0x20 /opt/intel/composer_xe_2013.3.163/compiler/lib/intel64/libimf.a(atan2.o)
                                         0x38 (size before relaxing)
 .eh_frame      0x00000000005e8100       0x18 /opt/intel/composer_xe_2013.3.163/compiler/lib/intel64/libimf.a(atan_stub.o)
                                         0x30 (size before relaxing)
 .eh_frame      0x00000000005e8118       0x18 /opt/intel/composer_xe_2013.3.163/compiler/lib/intel64/libimf.a(cbrt_stub.o)
                                         0x30 (size before relaxing)
 .eh_frame      0x00000000005e8130       0x18 /opt/intel/composer_xe_2013.3.163/compiler/lib/intel64/libimf.a(ceilf_stub.o)
                                         0x30 (size before relaxing)
 .eh_frame      0x00000000005e8148       0x18 /opt/intel/composer_xe_2013.3.163/compiler/lib/intel64/libimf.a(ceil_stub.o)
                                         0x30 (size before relaxing)
 .eh_frame      0x00000000005e8160       0x18 /opt/intel/composer_xe_2013.3.163/compiler/lib/intel64/libimf.a(cos_stub.o)
                                         0x30 (size before relaxing)
 .eh_frame      0x00000000005e8178       0x18 /opt/intel/composer_xe_2013.3.163/compiler/lib/intel64/libimf.a(exp2f_stub.o)
                                         0x30 (size before relaxing)
 .eh_frame      0x00000000005e8190       0x18 /opt/intel/composer_xe_2013.3.163/compiler/lib/intel64/libimf.a(exp_stub.o)
                                         0x30 (size before relaxing)
 .eh_frame      0x00000000005e81a8       0x18 /opt/intel/composer_xe_2013.3.163/compiler/lib/intel64/libimf.a(floorf_stub.o)
                                         0x30 (size before relaxing)
 .eh_frame      0x00000000005e81c0       0x18 /opt/intel/composer_xe_2013.3.163/compiler/lib/intel64/libimf.a(floor_stub.o)
                                         0x30 (size before relaxing)
 .eh_frame      0x00000000005e81d8       0x18 /opt/intel/composer_xe_2013.3.163/compiler/lib/intel64/libimf.a(f__powi4i4.o)
                                         0x30 (size before relaxing)
 .eh_frame      0x00000000005e81f0      0x180 /opt/intel/composer_xe_2013.3.163/compiler/lib/intel64/libimf.a(isfinite.o)
                                        0x198 (size before relaxing)
 .eh_frame      0x00000000005e8370       0xf8 /opt/intel/composer_xe_2013.3.163/compiler/lib/intel64/libimf.a(libm_error.o)
                                        0x110 (size before relaxing)
 .eh_frame      0x00000000005e8468       0x20 /opt/intel/composer_xe_2013.3.163/compiler/lib/intel64/libimf.a(libm_sse2_sincos.o)
                                         0x38 (size before relaxing)
 .eh_frame      0x00000000005e8488       0x18 /opt/intel/composer_xe_2013.3.163/compiler/lib/intel64/libimf.a(log10f_stub.o)
                                         0x30 (size before relaxing)
 .eh_frame      0x00000000005e84a0       0x18 /opt/intel/composer_xe_2013.3.163/compiler/lib/intel64/libimf.a(log10_stub.o)
                                         0x30 (size before relaxing)
 .eh_frame      0x00000000005e84b8       0x18 /opt/intel/composer_xe_2013.3.163/compiler/lib/intel64/libimf.a(log_stub.o)
                                         0x30 (size before relaxing)
 .eh_frame      0x00000000005e84d0       0x18 /opt/intel/composer_xe_2013.3.163/compiler/lib/intel64/libimf.a(matherrf.o)
                                         0x30 (size before relaxing)
 .eh_frame      0x00000000005e84e8       0x18 /opt/intel/composer_xe_2013.3.163/compiler/lib/intel64/libimf.a(matherrl.o)
                                         0x30 (size before relaxing)
 .eh_frame      0x00000000005e8500       0x18 /opt/intel/composer_xe_2013.3.163/compiler/lib/intel64/libimf.a(matherr.o)
                                         0x30 (size before relaxing)
 .eh_frame      0x00000000005e8518       0x18 /opt/intel/composer_xe_2013.3.163/compiler/lib/intel64/libimf.a(pow_stub.o)
                                         0x30 (size before relaxing)
 .eh_frame      0x00000000005e8530       0x18 /opt/intel/composer_xe_2013.3.163/compiler/lib/intel64/libimf.a(sincosf_stub.o)
                                         0x30 (size before relaxing)
 .eh_frame      0x00000000005e8548       0x18 /opt/intel/composer_xe_2013.3.163/compiler/lib/intel64/libimf.a(sincos_stub.o)
                                         0x30 (size before relaxing)
 .eh_frame      0x00000000005e8560       0x18 /opt/intel/composer_xe_2013.3.163/compiler/lib/intel64/libimf.a(sin_stub.o)
                                         0x30 (size before relaxing)
 .eh_frame      0x00000000005e8578       0x18 /opt/intel/composer_xe_2013.3.163/compiler/lib/intel64/libimf.a(tan_stub.o)
                                         0x30 (size before relaxing)
 .eh_frame      0x00000000005e8590       0x20 /opt/intel/composer_xe_2013.3.163/compiler/lib/intel64/libimf.a(atan_ct.o)
                                         0x38 (size before relaxing)
 .eh_frame      0x00000000005e85b0       0x20 /opt/intel/composer_xe_2013.3.163/compiler/lib/intel64/libimf.a(atan_gen.o)
                                         0x38 (size before relaxing)
 .eh_frame      0x00000000005e85d0       0x20 /opt/intel/composer_xe_2013.3.163/compiler/lib/intel64/libimf.a(cbrt_ct.o)
                                         0x38 (size before relaxing)
 .eh_frame      0x00000000005e85f0       0x18 /opt/intel/composer_xe_2013.3.163/compiler/lib/intel64/libimf.a(cbrt_gen.o)
                                         0x30 (size before relaxing)
 .eh_frame      0x00000000005e8608       0x18 /opt/intel/composer_xe_2013.3.163/compiler/lib/intel64/libimf.a(ceil_ct.o)
                                         0x30 (size before relaxing)
 .eh_frame      0x00000000005e8620       0x18 /opt/intel/composer_xe_2013.3.163/compiler/lib/intel64/libimf.a(ceilf_ct.o)
                                         0x30 (size before relaxing)
 .eh_frame      0x00000000005e8638       0x18 /opt/intel/composer_xe_2013.3.163/compiler/lib/intel64/libimf.a(ceilf_gen.o)
                                         0x30 (size before relaxing)
 .eh_frame      0x00000000005e8650       0x18 /opt/intel/composer_xe_2013.3.163/compiler/lib/intel64/libimf.a(ceilf_pnr.o)
                                         0x30 (size before relaxing)
 .eh_frame      0x00000000005e8668       0x18 /opt/intel/composer_xe_2013.3.163/compiler/lib/intel64/libimf.a(ceil_gen.o)
                                         0x30 (size before relaxing)
 .eh_frame      0x00000000005e8680       0x18 /opt/intel/composer_xe_2013.3.163/compiler/lib/intel64/libimf.a(ceil_pnr.o)
                                         0x30 (size before relaxing)
 .eh_frame      0x00000000005e8698       0x28 /opt/intel/composer_xe_2013.3.163/compiler/lib/intel64/libimf.a(cos_ct.o)
                                         0x40 (size before relaxing)
 .eh_frame      0x00000000005e86c0       0x28 /opt/intel/composer_xe_2013.3.163/compiler/lib/intel64/libimf.a(cos_gen.o)
                                         0x40 (size before relaxing)
 .eh_frame      0x00000000005e86e8       0x28 /opt/intel/composer_xe_2013.3.163/compiler/lib/intel64/libimf.a(cos_pnr.o)
                                         0x40 (size before relaxing)
 .eh_frame      0x00000000005e8710       0x20 /opt/intel/composer_xe_2013.3.163/compiler/lib/intel64/libimf.a(exp2f_ct.o)
                                         0x38 (size before relaxing)
 .eh_frame      0x00000000005e8730       0x50 /opt/intel/composer_xe_2013.3.163/compiler/lib/intel64/libimf.a(exp2f_gen.o)
                                         0x68 (size before relaxing)
 .eh_frame      0x00000000005e8780       0x20 /opt/intel/composer_xe_2013.3.163/compiler/lib/intel64/libimf.a(exp_ct.o)
                                         0x38 (size before relaxing)
 .eh_frame      0x00000000005e87a0       0x20 /opt/intel/composer_xe_2013.3.163/compiler/lib/intel64/libimf.a(exp_gen.o)
                                         0x38 (size before relaxing)
 .eh_frame      0x00000000005e87c0       0x18 /opt/intel/composer_xe_2013.3.163/compiler/lib/intel64/libimf.a(floor_ct.o)
                                         0x30 (size before relaxing)
 .eh_frame      0x00000000005e87d8       0x18 /opt/intel/composer_xe_2013.3.163/compiler/lib/intel64/libimf.a(floorf_ct.o)
                                         0x30 (size before relaxing)
 .eh_frame      0x00000000005e87f0       0x18 /opt/intel/composer_xe_2013.3.163/compiler/lib/intel64/libimf.a(floorf_gen.o)
                                         0x30 (size before relaxing)
 .eh_frame      0x00000000005e8808       0x18 /opt/intel/composer_xe_2013.3.163/compiler/lib/intel64/libimf.a(floorf_pnr.o)
                                         0x30 (size before relaxing)
 .eh_frame      0x00000000005e8820       0x18 /opt/intel/composer_xe_2013.3.163/compiler/lib/intel64/libimf.a(floor_gen.o)
                                         0x30 (size before relaxing)
 .eh_frame      0x00000000005e8838       0x18 /opt/intel/composer_xe_2013.3.163/compiler/lib/intel64/libimf.a(floor_pnr.o)
                                         0x30 (size before relaxing)
 .eh_frame      0x00000000005e8850       0x18 /opt/intel/composer_xe_2013.3.163/compiler/lib/intel64/libimf.a(libm_reduce_pio2.o)
                                         0x30 (size before relaxing)
 .eh_frame      0x00000000005e8868       0x20 /opt/intel/composer_xe_2013.3.163/compiler/lib/intel64/libimf.a(log10_ct.o)
                                         0x38 (size before relaxing)
 .eh_frame      0x00000000005e8888       0x20 /opt/intel/composer_xe_2013.3.163/compiler/lib/intel64/libimf.a(log10f_ct.o)
                                         0x38 (size before relaxing)
 .eh_frame      0x00000000005e88a8       0x40 /opt/intel/composer_xe_2013.3.163/compiler/lib/intel64/libimf.a(log10f_gen.o)
                                         0x58 (size before relaxing)
 .eh_frame      0x00000000005e88e8       0x20 /opt/intel/composer_xe_2013.3.163/compiler/lib/intel64/libimf.a(log10_gen.o)
                                         0x38 (size before relaxing)
 .eh_frame      0x00000000005e8908       0x20 /opt/intel/composer_xe_2013.3.163/compiler/lib/intel64/libimf.a(log_ct.o)
                                         0x38 (size before relaxing)
 .eh_frame      0x00000000005e8928       0x20 /opt/intel/composer_xe_2013.3.163/compiler/lib/intel64/libimf.a(log_gen.o)
                                         0x38 (size before relaxing)
 .eh_frame      0x00000000005e8948       0x20 /opt/intel/composer_xe_2013.3.163/compiler/lib/intel64/libimf.a(pow_ct.o)
                                         0x38 (size before relaxing)
 .eh_frame      0x00000000005e8968       0x20 /opt/intel/composer_xe_2013.3.163/compiler/lib/intel64/libimf.a(pow_gen.o)
                                         0x38 (size before relaxing)
 .eh_frame      0x00000000005e8988       0x28 /opt/intel/composer_xe_2013.3.163/compiler/lib/intel64/libimf.a(sincos_ct.o)
                                         0x40 (size before relaxing)
 .eh_frame      0x00000000005e89b0       0x20 /opt/intel/composer_xe_2013.3.163/compiler/lib/intel64/libimf.a(sincosf_ct.o)
                                         0x38 (size before relaxing)
 .eh_frame      0x00000000005e89d0       0x20 /opt/intel/composer_xe_2013.3.163/compiler/lib/intel64/libimf.a(sincosf_gen.o)
                                         0x38 (size before relaxing)
 .eh_frame      0x00000000005e89f0       0x20 /opt/intel/composer_xe_2013.3.163/compiler/lib/intel64/libimf.a(sincos_gen.o)
                                         0x38 (size before relaxing)
 .eh_frame      0x00000000005e8a10       0x28 /opt/intel/composer_xe_2013.3.163/compiler/lib/intel64/libimf.a(sin_ct.o)
                                         0x40 (size before relaxing)
 .eh_frame      0x00000000005e8a38       0x28 /opt/intel/composer_xe_2013.3.163/compiler/lib/intel64/libimf.a(sin_gen.o)
                                         0x40 (size before relaxing)
 .eh_frame      0x00000000005e8a60       0x28 /opt/intel/composer_xe_2013.3.163/compiler/lib/intel64/libimf.a(sin_pnr.o)
                                         0x40 (size before relaxing)
 .eh_frame      0x00000000005e8a88       0x28 /opt/intel/composer_xe_2013.3.163/compiler/lib/intel64/libimf.a(tan_ct.o)
                                         0x40 (size before relaxing)
 .eh_frame      0x00000000005e8ab0       0x28 /opt/intel/composer_xe_2013.3.163/compiler/lib/intel64/libimf.a(tan_gen.o)
                                         0x40 (size before relaxing)
 .eh_frame      0x00000000005e8ad8      0x3d8 /d/bh0/home/matt/autoconf/DV/DVCliser//libDVCliser.a(DVCliser.o)
                                        0x3f0 (size before relaxing)
 .eh_frame      0x00000000005e8eb0       0x48 /opt/intel/composer_xe_2013.3.163/compiler/lib/intel64/libimf.a(acosdf.o)
                                         0x60 (size before relaxing)
 .eh_frame      0x00000000005e8ef8       0x18 /opt/intel/composer_xe_2013.3.163/compiler/lib/intel64/libimf.a(acosdq_stub.o)
                                         0x30 (size before relaxing)
 .eh_frame      0x00000000005e8f10       0x18 /opt/intel/composer_xe_2013.3.163/compiler/lib/intel64/libimf.a(acosd_stub.o)
                                         0x30 (size before relaxing)
 .eh_frame      0x00000000005e8f28       0x18 /opt/intel/composer_xe_2013.3.163/compiler/lib/intel64/libimf.a(acoshq_stub.o)
                                         0x30 (size before relaxing)
 .eh_frame      0x00000000005e8f40       0x18 /opt/intel/composer_xe_2013.3.163/compiler/lib/intel64/libimf.a(acosq_stub.o)
                                         0x30 (size before relaxing)
 .eh_frame      0x00000000005e8f58       0x20 /opt/intel/composer_xe_2013.3.163/compiler/lib/intel64/libimf.a(asindf.o)
                                         0x38 (size before relaxing)
 .eh_frame      0x00000000005e8f78       0x18 /opt/intel/composer_xe_2013.3.163/compiler/lib/intel64/libimf.a(asindq_stub.o)
                                         0x30 (size before relaxing)
 .eh_frame      0x00000000005e8f90       0x18 /opt/intel/composer_xe_2013.3.163/compiler/lib/intel64/libimf.a(asind_stub.o)
                                         0x30 (size before relaxing)
 .eh_frame      0x00000000005e8fa8       0x18 /opt/intel/composer_xe_2013.3.163/compiler/lib/intel64/libimf.a(asinhq_stub.o)
                                         0x30 (size before relaxing)
 .eh_frame      0x00000000005e8fc0       0x18 /opt/intel/composer_xe_2013.3.163/compiler/lib/intel64/libimf.a(asinq_stub.o)
                                         0x30 (size before relaxing)
 .eh_frame      0x00000000005e8fd8       0x30 /opt/intel/composer_xe_2013.3.163/compiler/lib/intel64/libimf.a(atan2dq_stub.o)
                                         0x48 (size before relaxing)
 .eh_frame      0x00000000005e9008       0x18 /opt/intel/composer_xe_2013.3.163/compiler/lib/intel64/libimf.a(atan2q_stub.o)
                                         0x30 (size before relaxing)
 .eh_frame      0x00000000005e9020       0x18 /opt/intel/composer_xe_2013.3.163/compiler/lib/intel64/libimf.a(atandf.o)
                                         0x30 (size before relaxing)
 .eh_frame      0x00000000005e9038       0x18 /opt/intel/composer_xe_2013.3.163/compiler/lib/intel64/libimf.a(atand.o)
                                         0x30 (size before relaxing)
 .eh_frame      0x00000000005e9050       0x18 /opt/intel/composer_xe_2013.3.163/compiler/lib/intel64/libimf.a(atandq_stub.o)
                                         0x30 (size before relaxing)
 .eh_frame      0x00000000005e9068       0x18 /opt/intel/composer_xe_2013.3.163/compiler/lib/intel64/libimf.a(atanhq_stub.o)
                                         0x30 (size before relaxing)
 .eh_frame      0x00000000005e9080       0x18 /opt/intel/composer_xe_2013.3.163/compiler/lib/intel64/libimf.a(atanq_stub.o)
                                         0x30 (size before relaxing)
 .eh_frame      0x00000000005e9098       0x18 /opt/intel/composer_xe_2013.3.163/compiler/lib/intel64/libimf.a(cabsq.o)
                                         0x30 (size before relaxing)
 .eh_frame      0x00000000005e90b0       0x18 /opt/intel/composer_xe_2013.3.163/compiler/lib/intel64/libimf.a(cbrtq_stub.o)
                                         0x30 (size before relaxing)
 .eh_frame      0x00000000005e90c8       0x28 /opt/intel/composer_xe_2013.3.163/compiler/lib/intel64/libimf.a(ccoshq.o)
                                         0x40 (size before relaxing)
 .eh_frame      0x00000000005e90f0       0x30 /opt/intel/composer_xe_2013.3.163/compiler/lib/intel64/libimf.a(ccosq.o)
                                         0x48 (size before relaxing)
 .eh_frame      0x00000000005e9120       0x18 /opt/intel/composer_xe_2013.3.163/compiler/lib/intel64/libimf.a(ceilq.o)
                                         0x30 (size before relaxing)
 .eh_frame      0x00000000005e9138       0x18 /opt/intel/composer_xe_2013.3.163/compiler/lib/intel64/libimf.a(cexp10f.o)
                                         0x30 (size before relaxing)
 .eh_frame      0x00000000005e9150       0x20 /opt/intel/composer_xe_2013.3.163/compiler/lib/intel64/libimf.a(cexp10.o)
                                         0x38 (size before relaxing)
 .eh_frame      0x00000000005e9170       0x38 /opt/intel/composer_xe_2013.3.163/compiler/lib/intel64/libimf.a(cexp10q.o)
                                         0x50 (size before relaxing)
 .eh_frame      0x00000000005e91a8       0x38 /opt/intel/composer_xe_2013.3.163/compiler/lib/intel64/libimf.a(cexpq.o)
                                         0x50 (size before relaxing)
 .eh_frame      0x00000000005e91e0       0x30 /opt/intel/composer_xe_2013.3.163/compiler/lib/intel64/libimf.a(clog10q.o)
                                         0x48 (size before relaxing)
 .eh_frame      0x00000000005e9210       0x28 /opt/intel/composer_xe_2013.3.163/compiler/lib/intel64/libimf.a(clogq.o)
                                         0x40 (size before relaxing)
 .eh_frame      0x00000000005e9238       0x18 /opt/intel/composer_xe_2013.3.163/compiler/lib/intel64/libimf.a(cosdf_stub.o)
                                         0x30 (size before relaxing)
 .eh_frame      0x00000000005e9250       0x18 /opt/intel/composer_xe_2013.3.163/compiler/lib/intel64/libimf.a(cosdq_stub.o)
                                         0x30 (size before relaxing)
 .eh_frame      0x00000000005e9268       0x18 /opt/intel/composer_xe_2013.3.163/compiler/lib/intel64/libimf.a(cosd_stub.o)
                                         0x30 (size before relaxing)
 .eh_frame      0x00000000005e9280       0x18 /opt/intel/composer_xe_2013.3.163/compiler/lib/intel64/libimf.a(coshq_stub.o)
                                         0x30 (size before relaxing)
 .eh_frame      0x00000000005e9298       0x18 /opt/intel/composer_xe_2013.3.163/compiler/lib/intel64/libimf.a(cosq_stub.o)
                                         0x30 (size before relaxing)
 .eh_frame      0x00000000005e92b0       0x18 /opt/intel/composer_xe_2013.3.163/compiler/lib/intel64/libimf.a(cotdf_stub.o)
                                         0x30 (size before relaxing)
 .eh_frame      0x00000000005e92c8       0x18 /opt/intel/composer_xe_2013.3.163/compiler/lib/intel64/libimf.a(cotdq_stub.o)
                                         0x30 (size before relaxing)
 .eh_frame      0x00000000005e92e0       0x18 /opt/intel/composer_xe_2013.3.163/compiler/lib/intel64/libimf.a(cotd_stub.o)
                                         0x30 (size before relaxing)
 .eh_frame      0x00000000005e92f8       0x20 /opt/intel/composer_xe_2013.3.163/compiler/lib/intel64/libimf.a(cotf.o)
                                         0x38 (size before relaxing)
 .eh_frame      0x00000000005e9318       0x20 /opt/intel/composer_xe_2013.3.163/compiler/lib/intel64/libimf.a(cot.o)
                                         0x38 (size before relaxing)
 .eh_frame      0x00000000005e9338       0x18 /opt/intel/composer_xe_2013.3.163/compiler/lib/intel64/libimf.a(cotq_stub.o)
                                         0x30 (size before relaxing)
 .eh_frame      0x00000000005e9350       0x38 /opt/intel/composer_xe_2013.3.163/compiler/lib/intel64/libimf.a(cpowq.o)
                                         0x50 (size before relaxing)
 .eh_frame      0x00000000005e9388       0x28 /opt/intel/composer_xe_2013.3.163/compiler/lib/intel64/libimf.a(csinhq.o)
                                         0x40 (size before relaxing)
 .eh_frame      0x00000000005e93b0       0x30 /opt/intel/composer_xe_2013.3.163/compiler/lib/intel64/libimf.a(csinq.o)
                                         0x48 (size before relaxing)
 .eh_frame      0x00000000005e93e0       0x98 /opt/intel/composer_xe_2013.3.163/compiler/lib/intel64/libimf.a(csqrtq.o)
                                         0xb0 (size before relaxing)
 .eh_frame      0x00000000005e9478       0x38 /opt/intel/composer_xe_2013.3.163/compiler/lib/intel64/libimf.a(ctanhq.o)
                                         0x50 (size before relaxing)
 .eh_frame      0x00000000005e94b0       0x30 /opt/intel/composer_xe_2013.3.163/compiler/lib/intel64/libimf.a(ctanq.o)
                                         0x48 (size before relaxing)
 .eh_frame      0x00000000005e94e0      0x330 /opt/intel/composer_xe_2013.3.163/compiler/lib/intel64/libimf.a(dpml_ux_bessel.o)
                                        0x348 (size before relaxing)
 .eh_frame      0x00000000005e9810       0x70 /opt/intel/composer_xe_2013.3.163/compiler/lib/intel64/libimf.a(dpml_ux_erf.o)
                                         0x88 (size before relaxing)
 .eh_frame      0x00000000005e9880       0x98 /opt/intel/composer_xe_2013.3.163/compiler/lib/intel64/libimf.a(dpml_ux_exp.o)
                                         0xb0 (size before relaxing)
 .eh_frame      0x00000000005e9918       0x80 /opt/intel/composer_xe_2013.3.163/compiler/lib/intel64/libimf.a(dpml_ux_int.o)
                                         0x98 (size before relaxing)
 .eh_frame      0x00000000005e9998       0xc8 /opt/intel/composer_xe_2013.3.163/compiler/lib/intel64/libimf.a(dpml_ux_lgamma.o)
                                         0xe0 (size before relaxing)
 .eh_frame      0x00000000005e9a60       0x60 /opt/intel/composer_xe_2013.3.163/compiler/lib/intel64/libimf.a(dpml_ux_log.o)
                                         0x78 (size before relaxing)
 .eh_frame      0x00000000005e9ac0      0x1a0 /opt/intel/composer_xe_2013.3.163/compiler/lib/intel64/libimf.a(dpml_ux_mod.o)
                                        0x1b8 (size before relaxing)
 .eh_frame      0x00000000005e9c60      0x240 /opt/intel/composer_xe_2013.3.163/compiler/lib/intel64/libimf.a(dpml_ux_ops_64.o)
                                        0x258 (size before relaxing)
 .eh_frame      0x00000000005e9ea0      0x298 /opt/intel/composer_xe_2013.3.163/compiler/lib/intel64/libimf.a(dpml_ux_ops.o)
                                        0x2b0 (size before relaxing)
 .eh_frame      0x00000000005ea138       0x70 /opt/intel/composer_xe_2013.3.163/compiler/lib/intel64/libimf.a(dpml_ux_powi.o)
                                         0x88 (size before relaxing)
 .eh_frame      0x00000000005ea1a8       0xe0 /opt/intel/composer_xe_2013.3.163/compiler/lib/intel64/libimf.a(dpml_ux_sqrt.o)
                                         0xf8 (size before relaxing)
 .eh_frame      0x00000000005ea288      0x140 /opt/intel/composer_xe_2013.3.163/compiler/lib/intel64/libimf.a(dpml_ux_trig.o)
                                        0x158 (size before relaxing)
 .eh_frame      0x00000000005ea3c8       0x18 /opt/intel/composer_xe_2013.3.163/compiler/lib/intel64/libimf.a(exp10q_stub.o)
                                         0x30 (size before relaxing)
 .eh_frame      0x00000000005ea3e0       0x18 /opt/intel/composer_xe_2013.3.163/compiler/lib/intel64/libimf.a(exp2q_stub.o)
                                         0x30 (size before relaxing)
 .eh_frame      0x00000000005ea3f8       0x18 /opt/intel/composer_xe_2013.3.163/compiler/lib/intel64/libimf.a(expq_stub.o)
                                         0x30 (size before relaxing)
 .eh_frame      0x00000000005ea410       0x18 /opt/intel/composer_xe_2013.3.163/compiler/lib/intel64/libimf.a(fabsq.o)
                                         0x30 (size before relaxing)
 .eh_frame      0x00000000005ea428       0x18 /opt/intel/composer_xe_2013.3.163/compiler/lib/intel64/libimf.a(floorq.o)
                                         0x30 (size before relaxing)
 .eh_frame      0x00000000005ea440       0x18 /opt/intel/composer_xe_2013.3.163/compiler/lib/intel64/libimf.a(frexpq.o)
                                         0x30 (size before relaxing)
 .eh_frame      0x00000000005ea458       0x18 /opt/intel/composer_xe_2013.3.163/compiler/lib/intel64/libimf.a(hypotq_stub.o)
                                         0x30 (size before relaxing)
 .eh_frame      0x00000000005ea470       0xc0 /opt/intel/composer_xe_2013.3.163/compiler/lib/intel64/libimf.a(intel_quad_exception.o)
                                         0xd8 (size before relaxing)
 .eh_frame      0x00000000005ea530       0x78 /opt/intel/composer_xe_2013.3.163/compiler/lib/intel64/libimf.a(ldexpq.o)
                                         0x90 (size before relaxing)
 .eh_frame      0x00000000005ea5a8       0x18 /opt/intel/composer_xe_2013.3.163/compiler/lib/intel64/libimf.a(libm128_error.o)
                                         0x30 (size before relaxing)
 .eh_frame      0x00000000005ea5c0       0x18 /opt/intel/composer_xe_2013.3.163/compiler/lib/intel64/libimf.a(libm_exp10_k64.o)
                                         0x30 (size before relaxing)
 .eh_frame      0x00000000005ea5d8       0x18 /opt/intel/composer_xe_2013.3.163/compiler/lib/intel64/libimf.a(libm_mul_k64.o)
                                         0x30 (size before relaxing)
 .eh_frame      0x00000000005ea5f0       0x50 /opt/intel/composer_xe_2013.3.163/compiler/lib/intel64/libimf.a(libm_sincosln10_k64.o)
                                         0x68 (size before relaxing)
 .eh_frame      0x00000000005ea640       0x18 /opt/intel/composer_xe_2013.3.163/compiler/lib/intel64/libimf.a(log10q_stub.o)
                                         0x30 (size before relaxing)
 .eh_frame      0x00000000005ea658       0x18 /opt/intel/composer_xe_2013.3.163/compiler/lib/intel64/libimf.a(log2q_stub.o)
                                         0x30 (size before relaxing)
 .eh_frame      0x00000000005ea670       0x18 /opt/intel/composer_xe_2013.3.163/compiler/lib/intel64/libimf.a(logq_stub.o)
                                         0x30 (size before relaxing)
 .eh_frame      0x00000000005ea688       0xd0 /opt/intel/composer_xe_2013.3.163/compiler/lib/intel64/libimf.a(nextafterq.o)
                                         0xe8 (size before relaxing)
 .eh_frame      0x00000000005ea758       0x18 /opt/intel/composer_xe_2013.3.163/compiler/lib/intel64/libimf.a(powq_stub.o)
                                         0x30 (size before relaxing)
 .eh_frame      0x00000000005ea770       0x48 /opt/intel/composer_xe_2013.3.163/compiler/lib/intel64/libimf.a(rintq.o)
                                         0x60 (size before relaxing)
 .eh_frame      0x00000000005ea7b8       0x78 /opt/intel/composer_xe_2013.3.163/compiler/lib/intel64/libimf.a(scalbnq.o)
                                         0x90 (size before relaxing)
 .eh_frame      0x00000000005ea830       0x18 /opt/intel/composer_xe_2013.3.163/compiler/lib/intel64/libimf.a(sindf_stub.o)
                                         0x30 (size before relaxing)
 .eh_frame      0x00000000005ea848       0x18 /opt/intel/composer_xe_2013.3.163/compiler/lib/intel64/libimf.a(sindq_stub.o)
                                         0x30 (size before relaxing)
 .eh_frame      0x00000000005ea860       0x18 /opt/intel/composer_xe_2013.3.163/compiler/lib/intel64/libimf.a(sind_stub.o)
                                         0x30 (size before relaxing)
 .eh_frame      0x00000000005ea878       0x18 /opt/intel/composer_xe_2013.3.163/compiler/lib/intel64/libimf.a(sinhq_stub.o)
                                         0x30 (size before relaxing)
 .eh_frame      0x00000000005ea890       0x18 /opt/intel/composer_xe_2013.3.163/compiler/lib/intel64/libimf.a(sinq_stub.o)
                                         0x30 (size before relaxing)
 .eh_frame      0x00000000005ea8a8       0x18 /opt/intel/composer_xe_2013.3.163/compiler/lib/intel64/libimf.a(tandf_stub.o)
                                         0x30 (size before relaxing)
 .eh_frame      0x00000000005ea8c0       0x18 /opt/intel/composer_xe_2013.3.163/compiler/lib/intel64/libimf.a(tandq_stub.o)
                                         0x30 (size before relaxing)
 .eh_frame      0x00000000005ea8d8       0x18 /opt/intel/composer_xe_2013.3.163/compiler/lib/intel64/libimf.a(tand_stub.o)
                                         0x30 (size before relaxing)
 .eh_frame      0x00000000005ea8f0       0x18 /opt/intel/composer_xe_2013.3.163/compiler/lib/intel64/libimf.a(tanhq_stub.o)
                                         0x30 (size before relaxing)
 .eh_frame      0x00000000005ea908       0x18 /opt/intel/composer_xe_2013.3.163/compiler/lib/intel64/libimf.a(tanq_stub.o)
                                         0x30 (size before relaxing)
 .eh_frame      0x00000000005ea920       0x18 /opt/intel/composer_xe_2013.3.163/compiler/lib/intel64/libimf.a(truncq.o)
                                         0x30 (size before relaxing)
 .eh_frame      0x00000000005ea938       0x20 /opt/intel/composer_xe_2013.3.163/compiler/lib/intel64/libimf.a(acosd_ct.o)
                                         0x38 (size before relaxing)
 .eh_frame      0x00000000005ea958       0x38 /opt/intel/composer_xe_2013.3.163/compiler/lib/intel64/libimf.a(acosd_gen.o)
                                         0x50 (size before relaxing)
 .eh_frame      0x00000000005ea990      0x1f8 /opt/intel/composer_xe_2013.3.163/compiler/lib/intel64/libimf.a(acosdq_ct.o)
                                        0x210 (size before relaxing)
 .eh_frame      0x00000000005eab88      0x1f0 /opt/intel/composer_xe_2013.3.163/compiler/lib/intel64/libimf.a(acosdq_gen.o)
                                        0x208 (size before relaxing)
 .eh_frame      0x00000000005ead78      0x148 /opt/intel/composer_xe_2013.3.163/compiler/lib/intel64/libimf.a(acoshq_ct.o)
                                        0x160 (size before relaxing)
 .eh_frame      0x00000000005eaec0      0x230 /opt/intel/composer_xe_2013.3.163/compiler/lib/intel64/libimf.a(acoshq_gen.o)
                                        0x248 (size before relaxing)
 .eh_frame      0x00000000005eb0f0      0x1d0 /opt/intel/composer_xe_2013.3.163/compiler/lib/intel64/libimf.a(acosq_ct.o)
                                        0x1e8 (size before relaxing)
 .eh_frame      0x00000000005eb2c0      0x1d0 /opt/intel/composer_xe_2013.3.163/compiler/lib/intel64/libimf.a(acosq_gen.o)
                                        0x1e8 (size before relaxing)
 .eh_frame      0x00000000005eb490       0x20 /opt/intel/composer_xe_2013.3.163/compiler/lib/intel64/libimf.a(asind_ct.o)
                                         0x38 (size before relaxing)
 .eh_frame      0x00000000005eb4b0       0x48 /opt/intel/composer_xe_2013.3.163/compiler/lib/intel64/libimf.a(asind_gen.o)
                                         0x60 (size before relaxing)
 .eh_frame      0x00000000005eb4f8      0x200 /opt/intel/composer_xe_2013.3.163/compiler/lib/intel64/libimf.a(asindq_ct.o)
                                        0x218 (size before relaxing)
 .eh_frame      0x00000000005eb6f8      0x1f0 /opt/intel/composer_xe_2013.3.163/compiler/lib/intel64/libimf.a(asindq_gen.o)
                                        0x208 (size before relaxing)
 .eh_frame      0x00000000005eb8e8      0x1a8 /opt/intel/composer_xe_2013.3.163/compiler/lib/intel64/libimf.a(asinhq_ct.o)
                                        0x1c0 (size before relaxing)
 .eh_frame      0x00000000005eba90      0x258 /opt/intel/composer_xe_2013.3.163/compiler/lib/intel64/libimf.a(asinhq_gen.o)
                                        0x270 (size before relaxing)
 .eh_frame      0x00000000005ebce8      0x1d0 /opt/intel/composer_xe_2013.3.163/compiler/lib/intel64/libimf.a(asinq_ct.o)
                                        0x1e8 (size before relaxing)
 .eh_frame      0x00000000005ebeb8      0x1d0 /opt/intel/composer_xe_2013.3.163/compiler/lib/intel64/libimf.a(asinq_gen.o)
                                        0x1e8 (size before relaxing)
 .eh_frame      0x00000000005ec088      0x350 /opt/intel/composer_xe_2013.3.163/compiler/lib/intel64/libimf.a(atan2dq_ct.o)
                                        0x368 (size before relaxing)
 .eh_frame      0x00000000005ec3d8      0x6d0 /opt/intel/composer_xe_2013.3.163/compiler/lib/intel64/libimf.a(atan2dq_gen.o)
                                        0x6e8 (size before relaxing)
 .eh_frame      0x00000000005ecaa8      0x2a0 /opt/intel/composer_xe_2013.3.163/compiler/lib/intel64/libimf.a(atan2q_ct.o)
                                        0x2b8 (size before relaxing)
 .eh_frame      0x00000000005ecd48      0x2e8 /opt/intel/composer_xe_2013.3.163/compiler/lib/intel64/libimf.a(atan2q_gen.o)
                                        0x300 (size before relaxing)
 .eh_frame      0x00000000005ed030      0x148 /opt/intel/composer_xe_2013.3.163/compiler/lib/intel64/libimf.a(atandq_ct.o)
                                        0x160 (size before relaxing)
 .eh_frame      0x00000000005ed178      0x1b0 /opt/intel/composer_xe_2013.3.163/compiler/lib/intel64/libimf.a(atandq_gen.o)
                                        0x1c8 (size before relaxing)
 .eh_frame      0x00000000005ed328      0x118 /opt/intel/composer_xe_2013.3.163/compiler/lib/intel64/libimf.a(atanhq_ct.o)
                                        0x130 (size before relaxing)
 .eh_frame      0x00000000005ed440      0x218 /opt/intel/composer_xe_2013.3.163/compiler/lib/intel64/libimf.a(atanhq_gen.o)
                                        0x230 (size before relaxing)
 .eh_frame      0x00000000005ed658       0xf8 /opt/intel/composer_xe_2013.3.163/compiler/lib/intel64/libimf.a(atanq_ct.o)
                                        0x110 (size before relaxing)
 .eh_frame      0x00000000005ed750      0x160 /opt/intel/composer_xe_2013.3.163/compiler/lib/intel64/libimf.a(atanq_gen.o)
                                        0x178 (size before relaxing)
 .eh_frame      0x00000000005ed8b0       0x88 /opt/intel/composer_xe_2013.3.163/compiler/lib/intel64/libimf.a(cbrtq_ct.o)
                                         0xa0 (size before relaxing)
 .eh_frame      0x00000000005ed938       0xb0 /opt/intel/composer_xe_2013.3.163/compiler/lib/intel64/libimf.a(cbrtq_gen.o)
                                         0xc8 (size before relaxing)
 .eh_frame      0x00000000005ed9e8       0x18 /opt/intel/composer_xe_2013.3.163/compiler/lib/intel64/libimf.a(copysignq.o)
                                         0x30 (size before relaxing)
 .eh_frame      0x00000000005eda00       0x20 /opt/intel/composer_xe_2013.3.163/compiler/lib/intel64/libimf.a(cosd_ct.o)
                                         0x38 (size before relaxing)
 .eh_frame      0x00000000005eda20       0x18 /opt/intel/composer_xe_2013.3.163/compiler/lib/intel64/libimf.a(cosdf_ct.o)
                                         0x30 (size before relaxing)
 .eh_frame      0x00000000005eda38       0x18 /opt/intel/composer_xe_2013.3.163/compiler/lib/intel64/libimf.a(cosdf_gen.o)
                                         0x30 (size before relaxing)
 .eh_frame      0x00000000005eda50       0x18 /opt/intel/composer_xe_2013.3.163/compiler/lib/intel64/libimf.a(cosd_gen.o)
                                         0x30 (size before relaxing)
 .eh_frame      0x00000000005eda68      0x1c0 /opt/intel/composer_xe_2013.3.163/compiler/lib/intel64/libimf.a(cosdq_ct.o)
                                        0x1d8 (size before relaxing)
 .eh_frame      0x00000000005edc28      0x258 /opt/intel/composer_xe_2013.3.163/compiler/lib/intel64/libimf.a(cosdq_gen.o)
                                        0x270 (size before relaxing)
 .eh_frame      0x00000000005ede80      0x108 /opt/intel/composer_xe_2013.3.163/compiler/lib/intel64/libimf.a(coshq_ct.o)
                                        0x120 (size before relaxing)
 .eh_frame      0x00000000005edf88      0x250 /opt/intel/composer_xe_2013.3.163/compiler/lib/intel64/libimf.a(coshq_gen.o)
                                        0x268 (size before relaxing)
 .eh_frame      0x00000000005ee1d8       0x98 /opt/intel/composer_xe_2013.3.163/compiler/lib/intel64/libimf.a(cosq_ct.o)
                                         0xb0 (size before relaxing)
 .eh_frame      0x00000000005ee270      0x298 /opt/intel/composer_xe_2013.3.163/compiler/lib/intel64/libimf.a(cosq_gen.o)
                                        0x2b0 (size before relaxing)
 .eh_frame      0x00000000005ee508       0x20 /opt/intel/composer_xe_2013.3.163/compiler/lib/intel64/libimf.a(cotd_ct.o)
                                         0x38 (size before relaxing)
 .eh_frame      0x00000000005ee528       0x20 /opt/intel/composer_xe_2013.3.163/compiler/lib/intel64/libimf.a(cotdf_ct.o)
                                         0x38 (size before relaxing)
 .eh_frame      0x00000000005ee548       0x48 /opt/intel/composer_xe_2013.3.163/compiler/lib/intel64/libimf.a(cotdf_gen.o)
                                         0x60 (size before relaxing)
 .eh_frame      0x00000000005ee590       0x48 /opt/intel/composer_xe_2013.3.163/compiler/lib/intel64/libimf.a(cotd_gen.o)
                                         0x60 (size before relaxing)
 .eh_frame      0x00000000005ee5d8      0x1c8 /opt/intel/composer_xe_2013.3.163/compiler/lib/intel64/libimf.a(cotdq_ct.o)
                                        0x1e0 (size before relaxing)
 .eh_frame      0x00000000005ee7a0      0x2d8 /opt/intel/composer_xe_2013.3.163/compiler/lib/intel64/libimf.a(cotdq_gen.o)
                                        0x2f0 (size before relaxing)
 .eh_frame      0x00000000005eea78      0x128 /opt/intel/composer_xe_2013.3.163/compiler/lib/intel64/libimf.a(cotq_ct.o)
                                        0x140 (size before relaxing)
 .eh_frame      0x00000000005eeba0      0x228 /opt/intel/composer_xe_2013.3.163/compiler/lib/intel64/libimf.a(cotq_gen.o)
                                        0x240 (size before relaxing)
 .eh_frame      0x00000000005eedc8       0xc8 /opt/intel/composer_xe_2013.3.163/compiler/lib/intel64/libimf.a(exp10q_ct.o)
                                         0xe0 (size before relaxing)
 .eh_frame      0x00000000005eee90      0x148 /opt/intel/composer_xe_2013.3.163/compiler/lib/intel64/libimf.a(exp10q_gen.o)
                                        0x160 (size before relaxing)
 .eh_frame      0x00000000005eefd8      0x118 /opt/intel/composer_xe_2013.3.163/compiler/lib/intel64/libimf.a(exp2q_ct.o)
                                        0x130 (size before relaxing)
 .eh_frame      0x00000000005ef0f0      0x1a0 /opt/intel/composer_xe_2013.3.163/compiler/lib/intel64/libimf.a(exp2q_gen.o)
                                        0x1b8 (size before relaxing)
 .eh_frame      0x00000000005ef290       0xb0 /opt/intel/composer_xe_2013.3.163/compiler/lib/intel64/libimf.a(expq_ct.o)
                                         0xc8 (size before relaxing)
 .eh_frame      0x00000000005ef340      0x158 /opt/intel/composer_xe_2013.3.163/compiler/lib/intel64/libimf.a(expq_gen.o)
                                        0x170 (size before relaxing)
 .eh_frame      0x00000000005ef498       0xd8 /opt/intel/composer_xe_2013.3.163/compiler/lib/intel64/libimf.a(hypotq_ct.o)
                                         0xf0 (size before relaxing)
 .eh_frame      0x00000000005ef570       0xf0 /opt/intel/composer_xe_2013.3.163/compiler/lib/intel64/libimf.a(hypotq_gen.o)
                                        0x108 (size before relaxing)
 .eh_frame      0x00000000005ef660       0x80 /opt/intel/composer_xe_2013.3.163/compiler/lib/intel64/libimf.a(libm128_basics.o)
                                         0x98 (size before relaxing)
 .eh_frame      0x00000000005ef6e0      0x178 /opt/intel/composer_xe_2013.3.163/compiler/lib/intel64/libimf.a(libm128_l_ops.o)
                                        0x190 (size before relaxing)
 .eh_frame      0x00000000005ef858       0x48 /opt/intel/composer_xe_2013.3.163/compiler/lib/intel64/libimf.a(libm128_reduce_pi04q.o)
                                         0x60 (size before relaxing)
 .eh_frame      0x00000000005ef8a0      0x958 /opt/intel/composer_xe_2013.3.163/compiler/lib/intel64/libimf.a(libm128_x_ops.o)
                                        0x970 (size before relaxing)
 .eh_frame      0x00000000005f01f8       0x18 /opt/intel/composer_xe_2013.3.163/compiler/lib/intel64/libimf.a(libm_reduce_pio2ln10.o)
                                         0x30 (size before relaxing)
 .eh_frame      0x00000000005f0210      0x1c8 /opt/intel/composer_xe_2013.3.163/compiler/lib/intel64/libimf.a(log10q_ct.o)
                                        0x1e0 (size before relaxing)
 .eh_frame      0x00000000005f03d8      0x200 /opt/intel/composer_xe_2013.3.163/compiler/lib/intel64/libimf.a(log10q_gen.o)
                                        0x218 (size before relaxing)
 .eh_frame      0x00000000005f05d8      0x1c8 /opt/intel/composer_xe_2013.3.163/compiler/lib/intel64/libimf.a(log2q_ct.o)
                                        0x1e0 (size before relaxing)
 .eh_frame      0x00000000005f07a0      0x200 /opt/intel/composer_xe_2013.3.163/compiler/lib/intel64/libimf.a(log2q_gen.o)
                                        0x218 (size before relaxing)
 .eh_frame      0x00000000005f09a0      0x198 /opt/intel/composer_xe_2013.3.163/compiler/lib/intel64/libimf.a(logq_ct.o)
                                        0x1b0 (size before relaxing)
 .eh_frame      0x00000000005f0b38      0x1e8 /opt/intel/composer_xe_2013.3.163/compiler/lib/intel64/libimf.a(logq_gen.o)
                                        0x200 (size before relaxing)
 .eh_frame      0x00000000005f0d20      0x3a8 /opt/intel/composer_xe_2013.3.163/compiler/lib/intel64/libimf.a(powq_ct.o)
                                        0x3c0 (size before relaxing)
 .eh_frame      0x00000000005f10c8      0x408 /opt/intel/composer_xe_2013.3.163/compiler/lib/intel64/libimf.a(powq_gen.o)
                                        0x420 (size before relaxing)
 .eh_frame      0x00000000005f14d0       0x18 /opt/intel/composer_xe_2013.3.163/compiler/lib/intel64/libimf.a(roundq.o)
                                         0x30 (size before relaxing)
 .eh_frame      0x00000000005f14e8       0x20 /opt/intel/composer_xe_2013.3.163/compiler/lib/intel64/libimf.a(sind_ct.o)
                                         0x38 (size before relaxing)
 .eh_frame      0x00000000005f1508       0x18 /opt/intel/composer_xe_2013.3.163/compiler/lib/intel64/libimf.a(sindf_ct.o)
                                         0x30 (size before relaxing)
 .eh_frame      0x00000000005f1520       0x18 /opt/intel/composer_xe_2013.3.163/compiler/lib/intel64/libimf.a(sindf_gen.o)
                                         0x30 (size before relaxing)
 .eh_frame      0x00000000005f1538       0x18 /opt/intel/composer_xe_2013.3.163/compiler/lib/intel64/libimf.a(sind_gen.o)
                                         0x30 (size before relaxing)
 .eh_frame      0x00000000005f1550      0x1c8 /opt/intel/composer_xe_2013.3.163/compiler/lib/intel64/libimf.a(sindq_ct.o)
                                        0x1e0 (size before relaxing)
 .eh_frame      0x00000000005f1718      0x2a8 /opt/intel/composer_xe_2013.3.163/compiler/lib/intel64/libimf.a(sindq_gen.o)
                                        0x2c0 (size before relaxing)
 .eh_frame      0x00000000005f19c0      0x148 /opt/intel/composer_xe_2013.3.163/compiler/lib/intel64/libimf.a(sinhq_ct.o)
                                        0x160 (size before relaxing)
 .eh_frame      0x00000000005f1b08      0x280 /opt/intel/composer_xe_2013.3.163/compiler/lib/intel64/libimf.a(sinhq_gen.o)
                                        0x298 (size before relaxing)
 .eh_frame      0x00000000005f1d88       0xd8 /opt/intel/composer_xe_2013.3.163/compiler/lib/intel64/libimf.a(sinq_ct.o)
                                         0xf0 (size before relaxing)
 .eh_frame      0x00000000005f1e60      0x278 /opt/intel/composer_xe_2013.3.163/compiler/lib/intel64/libimf.a(sinq_gen.o)
                                        0x290 (size before relaxing)
 .eh_frame      0x00000000005f20d8       0x20 /opt/intel/composer_xe_2013.3.163/compiler/lib/intel64/libimf.a(tand_ct.o)
                                         0x38 (size before relaxing)
 .eh_frame      0x00000000005f20f8       0x20 /opt/intel/composer_xe_2013.3.163/compiler/lib/intel64/libimf.a(tandf_ct.o)
                                         0x38 (size before relaxing)
 .eh_frame      0x00000000005f2118       0x40 /opt/intel/composer_xe_2013.3.163/compiler/lib/intel64/libimf.a(tandf_gen.o)
                                         0x58 (size before relaxing)
 .eh_frame      0x00000000005f2158       0x48 /opt/intel/composer_xe_2013.3.163/compiler/lib/intel64/libimf.a(tand_gen.o)
                                         0x60 (size before relaxing)
 .eh_frame      0x00000000005f21a0      0x1c8 /opt/intel/composer_xe_2013.3.163/compiler/lib/intel64/libimf.a(tandq_ct.o)
                                        0x1e0 (size before relaxing)
 .eh_frame      0x00000000005f2368      0x2e8 /opt/intel/composer_xe_2013.3.163/compiler/lib/intel64/libimf.a(tandq_gen.o)
                                        0x300 (size before relaxing)
 .eh_frame      0x00000000005f2650      0x170 /opt/intel/composer_xe_2013.3.163/compiler/lib/intel64/libimf.a(tanhq_ct.o)
                                        0x188 (size before relaxing)
 .eh_frame      0x00000000005f27c0      0x250 /opt/intel/composer_xe_2013.3.163/compiler/lib/intel64/libimf.a(tanhq_gen.o)
                                        0x268 (size before relaxing)
 .eh_frame      0x00000000005f2a10       0xc0 /opt/intel/composer_xe_2013.3.163/compiler/lib/intel64/libimf.a(tanq_ct.o)
                                         0xd8 (size before relaxing)
 .eh_frame      0x00000000005f2ad0      0x228 /opt/intel/composer_xe_2013.3.163/compiler/lib/intel64/libimf.a(tanq_gen.o)
                                        0x240 (size before relaxing)
 .eh_frame      0x00000000005f2cf8       0x28 /opt/intel/composer_xe_2013.3.163/compiler/lib/intel64/libimf.a(invsqrtl.o)
                                         0x40 (size before relaxing)
 .eh_frame      0x00000000005f2d20     0x1178 /opt/intel/composer_xe_2013.3.163/compiler/lib/intel64/libimf.a(libm128_y_ops.o)
                                       0x1190 (size before relaxing)
 .eh_frame      0x00000000005f3e98       0x60 /opt/intel/composer_xe_2013.3.163/compiler/lib/intel64/libirc.a(ints2q.o)
                                         0x78 (size before relaxing)
 .eh_frame      0x00000000005f3ef8       0x18 /opt/intel/composer_xe_2013.3.163/compiler/lib/intel64/libirc.a(negq.o)
                                         0x30 (size before relaxing)
 .eh_frame      0x00000000005f3f10       0xa8 /opt/intel/composer_xe_2013.3.163/compiler/lib/intel64/libirc.a(qcomp.o)
                                         0xc0 (size before relaxing)
 .eh_frame      0x00000000005f3fb8       0x60 /opt/intel/composer_xe_2013.3.163/compiler/lib/intel64/libirc.a(q2ints.o)
                                         0x78 (size before relaxing)
 .eh_frame      0x00000000005f4018       0x48 /opt/intel/composer_xe_2013.3.163/compiler/lib/intel64/libirc.a(fp2q.o)
                                         0x60 (size before relaxing)
 .eh_frame      0x00000000005f4060       0x88 /opt/intel/composer_xe_2013.3.163/compiler/lib/intel64/libirc.a(q2fp.o)
                                         0xa0 (size before relaxing)
 .eh_frame      0x00000000005f40e8       0x18 /opt/intel/composer_xe_2013.3.163/compiler/lib/intel64/libirc.a(w_addq.o)
                                         0x30 (size before relaxing)
 .eh_frame      0x00000000005f4100       0x18 /opt/intel/composer_xe_2013.3.163/compiler/lib/intel64/libirc.a(w_geq.o)
                                         0x30 (size before relaxing)
 .eh_frame      0x00000000005f4118       0x18 /opt/intel/composer_xe_2013.3.163/compiler/lib/intel64/libirc.a(w_leq.o)
                                         0x30 (size before relaxing)
 .eh_frame      0x00000000005f4130       0x18 /opt/intel/composer_xe_2013.3.163/compiler/lib/intel64/libirc.a(w_mulq.o)
                                         0x30 (size before relaxing)
 .eh_frame      0x00000000005f4148       0x18 /opt/intel/composer_xe_2013.3.163/compiler/lib/intel64/libirc.a(w_subq.o)
                                         0x30 (size before relaxing)
 .eh_frame      0x00000000005f4160       0x60 /opt/intel/composer_xe_2013.3.163/compiler/lib/intel64/libirc.a(w_caddq.o)
                                         0x78 (size before relaxing)
 .eh_frame      0x00000000005f41c0       0x90 /opt/intel/composer_xe_2013.3.163/compiler/lib/intel64/libirc.a(w_cmulq.o)
                                         0xa8 (size before relaxing)
 .eh_frame      0x00000000005f4250       0x60 /opt/intel/composer_xe_2013.3.163/compiler/lib/intel64/libirc.a(w_csubq.o)
                                         0x78 (size before relaxing)
 .eh_frame      0x00000000005f42b0      0x1d8 /opt/intel/composer_xe_2013.3.163/compiler/lib/intel64/libirc.a(tbk_display.o)
                                        0x1f0 (size before relaxing)
 .eh_frame      0x00000000005f4488      0x3f8 /opt/intel/composer_xe_2013.3.163/compiler/lib/intel64/libirc.a(tbk_backtrace.o)
                                        0x410 (size before relaxing)
 .eh_frame      0x00000000005f4880       0x18 /opt/intel/composer_xe_2013.3.163/compiler/lib/intel64/libirc.a(ia32_memcmp.o)
                                         0x30 (size before relaxing)
 .eh_frame      0x00000000005f4898       0x18 /opt/intel/composer_xe_2013.3.163/compiler/lib/intel64/libirc.a(cpu_disp.o)
                                         0x30 (size before relaxing)
 .eh_frame      0x00000000005f48b0       0x28 /opt/intel/composer_xe_2013.3.163/compiler/lib/intel64/libirc.a(cpu_feature_dispx.o)
                                         0x40 (size before relaxing)
 .eh_frame      0x00000000005f48d8       0x78 /opt/intel/composer_xe_2013.3.163/compiler/lib/intel64/libirc.a(fastmemcpy.o)
                                         0x90 (size before relaxing)
 .eh_frame      0x00000000005f4950       0x48 /opt/intel/composer_xe_2013.3.163/compiler/lib/intel64/libirc.a(fastmemset.o)
                                         0x60 (size before relaxing)
 .eh_frame      0x00000000005f4998       0x90 /opt/intel/composer_xe_2013.3.163/compiler/lib/intel64/libirc.a(proc_init.o)
                                         0xa8 (size before relaxing)
 .eh_frame      0x00000000005f4a28       0x68 /opt/intel/composer_xe_2013.3.163/compiler/lib/intel64/libirc.a(proc_init_utils.o)
                                         0x80 (size before relaxing)
 .eh_frame      0x00000000005f4a90      0xb60 /opt/intel/composer_xe_2013.3.163/compiler/lib/intel64/libirc.a(ia32_addsubq.o)
                                        0xb78 (size before relaxing)
 .eh_frame      0x00000000005f55f0      0x388 /opt/intel/composer_xe_2013.3.163/compiler/lib/intel64/libirc.a(ia32_mulq.o)
                                        0x3a0 (size before relaxing)
 .eh_frame      0x00000000005f5978      0x588 /opt/intel/composer_xe_2013.3.163/compiler/lib/intel64/libirc.a(ia32_divq.o)
                                        0x5a0 (size before relaxing)
 .eh_frame      0x00000000005f5f00       0x88 /opt/intel/composer_xe_2013.3.163/compiler/lib/intel64/libirc.a(sse2_strcspn.o)
                                         0xa0 (size before relaxing)
 .eh_frame      0x00000000005f5f88       0xe0 /opt/intel/composer_xe_2013.3.163/compiler/lib/intel64/libirc.a(sse2_strtok.o)
                                         0xf8 (size before relaxing)
 .eh_frame      0x00000000005f6068       0x18 /opt/intel/composer_xe_2013.3.163/compiler/lib/intel64/libirc.a(sse2_strcpy.o)
                                         0x30 (size before relaxing)
 .eh_frame      0x00000000005f6080       0x98 /opt/intel/composer_xe_2013.3.163/compiler/lib/intel64/libirc.a(sse2_strncpy.o)
                                         0xb0 (size before relaxing)
 .eh_frame      0x00000000005f6118       0x18 /opt/intel/composer_xe_2013.3.163/compiler/lib/intel64/libirc.a(sse2_strlen.o)
                                         0x30 (size before relaxing)
 .eh_frame      0x00000000005f6130       0x18 /opt/intel/composer_xe_2013.3.163/compiler/lib/intel64/libirc.a(sse2_strchr.o)
                                         0x30 (size before relaxing)
 .eh_frame      0x00000000005f6148      0x178 /opt/intel/composer_xe_2013.3.163/compiler/lib/intel64/libirc.a(sse2_strncmp.o)
                                        0x190 (size before relaxing)
 .eh_frame      0x00000000005f62c0       0x58 /opt/intel/composer_xe_2013.3.163/compiler/lib/intel64/libirc.a(sse2_strcat.o)
                                         0x70 (size before relaxing)
 .eh_frame      0x00000000005f6318       0x58 /opt/intel/composer_xe_2013.3.163/compiler/lib/intel64/libirc.a(sse2_strncat.o)
                                         0x70 (size before relaxing)
 .eh_frame      0x00000000005f6370       0xd0 /opt/intel/composer_xe_2013.3.163/compiler/lib/intel64/libirc.a(sse2_strdup.o)
                                         0xe8 (size before relaxing)
 .eh_frame      0x00000000005f6440       0x18 /opt/intel/composer_xe_2013.3.163/compiler/lib/intel64/libirc.a(fast_memcpy_pp.o)
                                         0x30 (size before relaxing)
 .eh_frame      0x00000000005f6458       0x18 /opt/intel/composer_xe_2013.3.163/compiler/lib/intel64/libirc.a(fast_memset_pp.o)
                                         0x30 (size before relaxing)
 .eh_frame      0x00000000005f6470       0x18 /opt/intel/composer_xe_2013.3.163/compiler/lib/intel64/libirc.a(intel_ssse3_memcpy.o)
                                         0x30 (size before relaxing)
 .eh_frame      0x00000000005f6488       0x18 /opt/intel/composer_xe_2013.3.163/compiler/lib/intel64/libirc.a(intel_ssse3_rep_memcpy.o)
                                         0x30 (size before relaxing)
 .eh_frame      0x00000000005f64a0      0x108 /opt/intel/composer_xe_2013.3.163/compiler/lib/intel64/libirc.a(irc_msg_support.o)
                                        0x120 (size before relaxing)
 .eh_frame      0x00000000005f65a8      0x138 /opt/intel/composer_xe_2013.3.163/compiler/lib/intel64/libirc.a(fast_mem_ops.o)
                                        0x150 (size before relaxing)
 .eh_frame      0x00000000005f66e0       0x60 /usr/lib64/libc_nonshared.a(elf-init.oS)
                                         0x78 (size before relaxing)
 .eh_frame      0x00000000005f6740       0x18 /usr/lib64/libc_nonshared.a(stat.oS)
                                         0x30 (size before relaxing)
 .eh_frame      0x00000000005f6758        0x4 /usr/lib/gcc/x86_64-mageia-linux-gnu/4.8.2/crtend.o

.gcc_except_table
 *(.gcc_except_table .gcc_except_table.*)

.exception_ranges
 *(.exception_ranges .exception_ranges*)
                0x00000000005f675c                . = (ALIGN (0x200000) - ((0x200000 - .) & 0x1fffff))
                0x00000000007f680c                . = DATA_SEGMENT_ALIGN (0x200000, 0x1000)

.eh_frame
 *(.eh_frame)

.gcc_except_table
 *(.gcc_except_table .gcc_except_table.*)

.exception_ranges
 *(.exception_ranges .exception_ranges*)

.tdata
 *(.tdata .tdata.* .gnu.linkonce.td.*)

.tbss
 *(.tbss .tbss.* .gnu.linkonce.tb.*)
 *(.tcommon)

.preinit_array  0x00000000007f680c        0x0
                0x00000000007f680c                PROVIDE (__preinit_array_start, .)
 *(.preinit_array)
                0x00000000007f680c                PROVIDE (__preinit_array_end, .)

.init_array     0x00000000007f6810       0x10
                0x00000000007f6810                PROVIDE (__init_array_start, .)
 *(SORT(.init_array.*) SORT(.ctors.*))
 *(.init_array EXCLUDE_FILE(*crtend?.o *crtend.o *crtbegin?.o *crtbegin.o) .ctors)
 .init_array    0x00000000007f6810        0x8 /usr/lib/gcc/x86_64-mageia-linux-gnu/4.8.2/crtbegin.o
 .ctors         0x00000000007f6818        0x8 /opt/intel/composer_xe_2013.3.163/compiler/lib/intel64/libirc.a(fast_mem_ops.o)
                0x00000000007f6820                PROVIDE (__init_array_end, .)

.fini_array     0x00000000007f6820        0x8
                0x00000000007f6820                PROVIDE (__fini_array_start, .)
 *(SORT(.fini_array.*) SORT(.dtors.*))
 *(.fini_array EXCLUDE_FILE(*crtend?.o *crtend.o *crtbegin?.o *crtbegin.o) .dtors)
 .fini_array    0x00000000007f6820        0x8 /usr/lib/gcc/x86_64-mageia-linux-gnu/4.8.2/crtbegin.o
                0x00000000007f6828                PROVIDE (__fini_array_end, .)

.ctors
 *crtbegin.o(.ctors)
 *crtbegin?.o(.ctors)
 *(EXCLUDE_FILE(*crtend?.o *crtend.o) .ctors)
 *(SORT(.ctors.*))
 *(.ctors)

.dtors
 *crtbegin.o(.dtors)
 *crtbegin?.o(.dtors)
 *(EXCLUDE_FILE(*crtend?.o *crtend.o) .dtors)
 *(SORT(.dtors.*))
 *(.dtors)

.jcr            0x00000000007f6828        0x8
 *(.jcr)
 .jcr           0x00000000007f6828        0x0 /usr/lib/gcc/x86_64-mageia-linux-gnu/4.8.2/crtbegin.o
 .jcr           0x00000000007f6828        0x8 /usr/lib/gcc/x86_64-mageia-linux-gnu/4.8.2/crtend.o

.data.rel.ro    0x00000000007f6840     0x14c0
 *(.data.rel.ro.local* .gnu.linkonce.d.rel.ro.local.*)
 .data.rel.ro.local
                0x00000000007f6840      0x100 /opt/intel/composer_xe_2013.3.163/compiler/lib/intel64/libimf.a(libm_error.o)
 .data.rel.ro.local
                0x00000000007f6940       0x60 /opt/intel/composer_xe_2013.3.163/compiler/lib/intel64/libimf.a(dpml_ux_erf.o)
 .data.rel.ro.local
                0x00000000007f69a0      0xbe0 /opt/intel/composer_xe_2013.3.163/compiler/lib/intel64/libimf.a(intel_quad_exception.o)
 .data.rel.ro.local
                0x00000000007f7580       0x80 /opt/intel/composer_xe_2013.3.163/compiler/lib/intel64/libirc.a(tbk_backtrace.o)
 .data.rel.ro.local
                0x00000000007f7600      0x180 /opt/intel/composer_xe_2013.3.163/compiler/lib/intel64/libirc.a(sse2_strcspn.o)
 .data.rel.ro.local
                0x00000000007f7780      0x200 /opt/intel/composer_xe_2013.3.163/compiler/lib/intel64/libirc.a(sse2_strtok.o)
 .data.rel.ro.local
                0x00000000007f7980      0x380 /opt/intel/composer_xe_2013.3.163/compiler/lib/intel64/libirc.a(irc_msg_support.o)
 *(.data.rel.ro .data.rel.ro.* .gnu.linkonce.d.rel.ro.*)

.dynamic        0x00000000007f7d00      0x2b0
 *(.dynamic)
 .dynamic       0x00000000007f7d00      0x2b0 /usr/lib/gcc/x86_64-mageia-linux-gnu/4.8.2/../../../../lib64/crt1.o
                0x00000000007f7d00                _DYNAMIC

.got            0x00000000007f7fb0       0x40
 *(.got)
 .got           0x00000000007f7fb0       0x40 /usr/lib/gcc/x86_64-mageia-linux-gnu/4.8.2/../../../../lib64/crt1.o
 *(.igot)
                0x00000000007f8fe8                . = DATA_SEGMENT_RELRO_END (., (SIZEOF (.got.plt) >= 0x18)?0x18:0x0)

.got.plt        0x00000000007f8000      0x8c8
 *(.got.plt)
 .got.plt       0x00000000007f8000      0x8c8 /usr/lib/gcc/x86_64-mageia-linux-gnu/4.8.2/../../../../lib64/crt1.o
                0x00000000007f8000                _GLOBAL_OFFSET_TABLE_
 *(.igot.plt)
 .igot.plt      0x0000000000000000        0x0 /usr/lib/gcc/x86_64-mageia-linux-gnu/4.8.2/../../../../lib64/crt1.o

.data           0x00000000007f88e0     0x42e0
 *(.data .data.* .gnu.linkonce.d.*)
 .data          0x00000000007f88e0        0x4 /usr/lib/gcc/x86_64-mageia-linux-gnu/4.8.2/../../../../lib64/crt1.o
                0x00000000007f88e0                data_start
                0x00000000007f88e0                __data_start
 .data          0x00000000007f88e4        0x0 /usr/lib/gcc/x86_64-mageia-linux-gnu/4.8.2/../../../../lib64/crti.o
 *fill*         0x00000000007f88e4        0x4 
 .data          0x00000000007f88e8        0x8 /usr/lib/gcc/x86_64-mageia-linux-gnu/4.8.2/crtbegin.o
                0x00000000007f88e8                __dso_handle
 .data          0x00000000007f88f0        0x0 DV.o
 .data          0x00000000007f88f0       0x10 reg.o
                0x00000000007f88fc                clip_reduce_dim
 .data          0x00000000007f8900        0x0 misc.o
 .data          0x00000000007f8900        0x0 instr.o
 .data          0x00000000007f8900        0x0 misc_f77/misc_f77.o
 .data          0x00000000007f8900        0x8 fncs.o
 .data          0x00000000007f8908        0x4 s_iter.o
 *fill*         0x00000000007f890c       0x14 
 .data          0x00000000007f8920     0x2000 DV_gui/DV_forms.o
 .data          0x00000000007fa920     0x1260 DV_gui/DV_gui.o
                0x00000000007fa940                func_table
                0x00000000007fba40                diff_wrt
                0x00000000007fbb40                diff_mask_val
                0x00000000007fbb50                last_backed_up
                0x00000000007fbb54                db_reverse_y
                0x00000000007fbb58                diff_wrt_ind
                0x00000000007fbb5c                rb_send_to
                0x00000000007fbb60                curr_gl_canvas
                0x00000000007fbb64                dl_view_offset_s
 .data          0x00000000007fbb80        0x0 vis/send_bbh_xyz.o
 .data          0x00000000007fbb80        0x0 rnpl_diff/1d/updates_f1.o
 .data          0x00000000007fbb80        0x0 rnpl_diff/2d/updates_f2.o
 .data          0x00000000007fbb80        0x0 rnpl_diff/3d/updates_f3.o
 .data          0x00000000007fbb80        0x0 vis/send_accept_sdf.o
 .data          0x00000000007fbb80      0x100 vis/send_gl_canvas.o
                0x00000000007fbba0                xfont_names
                0x00000000007fbc40                os_cmap_p1
                0x00000000007fbc58                os_cmap_p2
                0x00000000007fbc70                os_cmap_bwidth
                0x00000000007fbc74                os_cmap_image_first
                0x00000000007fbc78                capture_jpeg_qf
 .data          0x00000000007fbc80        0x0 misc_f77/2Dclusterer.o
 .data          0x00000000007fbc80       0x2c misc_f77/dc_clusterer.o
 .data          0x00000000007fbcac        0x0 vis/scr_save.o
 .data          0x00000000007fbcac        0x0 null_int.o
 *fill*         0x00000000007fbcac       0x14 
 .data          0x00000000007fbcc0       0x80 geod_int.o
                0x00000000007fbcc0                gd_names
 .data          0x00000000007fbd40        0x0 DV_calc/DV_calc.tab.o
 .data          0x00000000007fbd40        0x8 DV_calc/lex.DV_calc.o
                0x00000000007fbd40                DV_calclineno
                0x00000000007fbd44                line_num
 .data          0x00000000007fbd48        0x0 DV_calc/parse.o
 .data          0x00000000007fbd48        0x0 /usr/local/intel/lib/libbbhutil.a(bbhutil.o)
 .data          0x00000000007fbd48        0x0 /usr/local/intel/lib/libbbhutil.a(cliser.o)
 *fill*         0x00000000007fbd48       0x18 
 .data          0x00000000007fbd60      0x100 /usr/local/intel/lib/libbbhutil.a(sdf.o)
 .data          0x00000000007fbe60        0x0 /usr/local/intel/lib/libbbhutil.a(gpar.tab.o)
 .data          0x00000000007fbe60        0x4 /usr/local/intel/lib/libbbhutil.a(lex.gpar.o)
                0x00000000007fbe60                gparlineno
 *fill*         0x00000000007fbe64       0x1c 
 .data          0x00000000007fbe80       0xa0 /usr/local/intel/lib/libutilio.a(ctoirang.o)
 .data          0x00000000007fbf20        0x0 /usr/local/intel/lib/libutilio.a(utilexplorer_c.o)
 .data          0x00000000007fbf20        0x0 /opt/intel/composer_xe_2013.3.163/compiler/lib/intel64/libimf.a(atan2.o)
 .data          0x00000000007fbf20        0x0 /opt/intel/composer_xe_2013.3.163/compiler/lib/intel64/libimf.a(atan_stub.o)
 .data          0x00000000007fbf20        0x0 /opt/intel/composer_xe_2013.3.163/compiler/lib/intel64/libimf.a(cbrt_stub.o)
 .data          0x00000000007fbf20        0x0 /opt/intel/composer_xe_2013.3.163/compiler/lib/intel64/libimf.a(ceilf_stub.o)
 .data          0x00000000007fbf20        0x0 /opt/intel/composer_xe_2013.3.163/compiler/lib/intel64/libimf.a(ceil_stub.o)
 .data          0x00000000007fbf20        0x0 /opt/intel/composer_xe_2013.3.163/compiler/lib/intel64/libimf.a(cos_stub.o)
 .data          0x00000000007fbf20        0x0 /opt/intel/composer_xe_2013.3.163/compiler/lib/intel64/libimf.a(exp2f_stub.o)
 .data          0x00000000007fbf20        0x0 /opt/intel/composer_xe_2013.3.163/compiler/lib/intel64/libimf.a(exp_stub.o)
 .data          0x00000000007fbf20        0x0 /opt/intel/composer_xe_2013.3.163/compiler/lib/intel64/libimf.a(floorf_stub.o)
 .data          0x00000000007fbf20        0x0 /opt/intel/composer_xe_2013.3.163/compiler/lib/intel64/libimf.a(floor_stub.o)
 .data          0x00000000007fbf20        0x0 /opt/intel/composer_xe_2013.3.163/compiler/lib/intel64/libimf.a(f__powi4i4.o)
 .data          0x00000000007fbf20        0x0 /opt/intel/composer_xe_2013.3.163/compiler/lib/intel64/libimf.a(isfinite.o)
 .data          0x00000000007fbf20      0x3c0 /opt/intel/composer_xe_2013.3.163/compiler/lib/intel64/libimf.a(libm_error.o)
                0x00000000007fc2c0                __libm_pmatherrf
                0x00000000007fc2c8                __libm_pmatherr
                0x00000000007fc2d0                __libm_pmatherrl
                0x00000000007fc2dc                _LIB_VERSIONIMF
 .data          0x00000000007fc2e0        0x0 /opt/intel/composer_xe_2013.3.163/compiler/lib/intel64/libimf.a(libm_sse2_sincos.o)
 .data          0x00000000007fc2e0        0x0 /opt/intel/composer_xe_2013.3.163/compiler/lib/intel64/libimf.a(log10f_stub.o)
 .data          0x00000000007fc2e0        0x0 /opt/intel/composer_xe_2013.3.163/compiler/lib/intel64/libimf.a(log10_stub.o)
 .data          0x00000000007fc2e0        0x0 /opt/intel/composer_xe_2013.3.163/compiler/lib/intel64/libimf.a(log_stub.o)
 .data          0x00000000007fc2e0        0x0 /opt/intel/composer_xe_2013.3.163/compiler/lib/intel64/libimf.a(matherrf.o)
 .data          0x00000000007fc2e0        0x0 /opt/intel/composer_xe_2013.3.163/compiler/lib/intel64/libimf.a(matherrl.o)
 .data          0x00000000007fc2e0        0x0 /opt/intel/composer_xe_2013.3.163/compiler/lib/intel64/libimf.a(matherr.o)
 .data          0x00000000007fc2e0        0x0 /opt/intel/composer_xe_2013.3.163/compiler/lib/intel64/libimf.a(pow_stub.o)
 .data          0x00000000007fc2e0        0x0 /opt/intel/composer_xe_2013.3.163/compiler/lib/intel64/libimf.a(sincosf_stub.o)
 .data          0x00000000007fc2e0        0x0 /opt/intel/composer_xe_2013.3.163/compiler/lib/intel64/libimf.a(sincos_stub.o)
 .data          0x00000000007fc2e0        0x0 /opt/intel/composer_xe_2013.3.163/compiler/lib/intel64/libimf.a(sin_stub.o)
 .data          0x00000000007fc2e0        0x0 /opt/intel/composer_xe_2013.3.163/compiler/lib/intel64/libimf.a(tan_stub.o)
 .data          0x00000000007fc2e0        0x0 /opt/intel/composer_xe_2013.3.163/compiler/lib/intel64/libimf.a(atan_ct.o)
 .data          0x00000000007fc2e0        0x0 /opt/intel/composer_xe_2013.3.163/compiler/lib/intel64/libimf.a(atan_gen.o)
 .data          0x00000000007fc2e0        0x0 /opt/intel/composer_xe_2013.3.163/compiler/lib/intel64/libimf.a(cbrt_ct.o)
 .data          0x00000000007fc2e0        0x0 /opt/intel/composer_xe_2013.3.163/compiler/lib/intel64/libimf.a(cbrt_gen.o)
 .data          0x00000000007fc2e0        0x0 /opt/intel/composer_xe_2013.3.163/compiler/lib/intel64/libimf.a(ceil_ct.o)
 .data          0x00000000007fc2e0        0x0 /opt/intel/composer_xe_2013.3.163/compiler/lib/intel64/libimf.a(ceilf_ct.o)
 .data          0x00000000007fc2e0        0x0 /opt/intel/composer_xe_2013.3.163/compiler/lib/intel64/libimf.a(ceilf_gen.o)
 .data          0x00000000007fc2e0        0x0 /opt/intel/composer_xe_2013.3.163/compiler/lib/intel64/libimf.a(ceilf_pnr.o)
 .data          0x00000000007fc2e0        0x0 /opt/intel/composer_xe_2013.3.163/compiler/lib/intel64/libimf.a(ceil_gen.o)
 .data          0x00000000007fc2e0        0x0 /opt/intel/composer_xe_2013.3.163/compiler/lib/intel64/libimf.a(ceil_pnr.o)
 .data          0x00000000007fc2e0        0x0 /opt/intel/composer_xe_2013.3.163/compiler/lib/intel64/libimf.a(cos_ct.o)
 .data          0x00000000007fc2e0        0x0 /opt/intel/composer_xe_2013.3.163/compiler/lib/intel64/libimf.a(cos_gen.o)
 .data          0x00000000007fc2e0        0x0 /opt/intel/composer_xe_2013.3.163/compiler/lib/intel64/libimf.a(cos_pnr.o)
 .data          0x00000000007fc2e0        0x0 /opt/intel/composer_xe_2013.3.163/compiler/lib/intel64/libimf.a(exp2f_ct.o)
 .data          0x00000000007fc2e0        0x0 /opt/intel/composer_xe_2013.3.163/compiler/lib/intel64/libimf.a(exp2f_gen.o)
 .data          0x00000000007fc2e0        0x0 /opt/intel/composer_xe_2013.3.163/compiler/lib/intel64/libimf.a(exp_ct.o)
 .data          0x00000000007fc2e0        0x0 /opt/intel/composer_xe_2013.3.163/compiler/lib/intel64/libimf.a(expf_table.o)
 .data          0x00000000007fc2e0        0x0 /opt/intel/composer_xe_2013.3.163/compiler/lib/intel64/libimf.a(exp_gen.o)
 .data          0x00000000007fc2e0        0x0 /opt/intel/composer_xe_2013.3.163/compiler/lib/intel64/libimf.a(floor_ct.o)
 .data          0x00000000007fc2e0        0x0 /opt/intel/composer_xe_2013.3.163/compiler/lib/intel64/libimf.a(floorf_ct.o)
 .data          0x00000000007fc2e0        0x0 /opt/intel/composer_xe_2013.3.163/compiler/lib/intel64/libimf.a(floorf_gen.o)
 .data          0x00000000007fc2e0        0x0 /opt/intel/composer_xe_2013.3.163/compiler/lib/intel64/libimf.a(floorf_pnr.o)
 .data          0x00000000007fc2e0        0x0 /opt/intel/composer_xe_2013.3.163/compiler/lib/intel64/libimf.a(floor_gen.o)
 .data          0x00000000007fc2e0        0x0 /opt/intel/composer_xe_2013.3.163/compiler/lib/intel64/libimf.a(floor_pnr.o)
 .data          0x00000000007fc2e0        0x0 /opt/intel/composer_xe_2013.3.163/compiler/lib/intel64/libimf.a(libm_reduce_pio2.o)
 .data          0x00000000007fc2e0        0x0 /opt/intel/composer_xe_2013.3.163/compiler/lib/intel64/libimf.a(log10_ct.o)
 .data          0x00000000007fc2e0        0x0 /opt/intel/composer_xe_2013.3.163/compiler/lib/intel64/libimf.a(log10f_ct.o)
 .data          0x00000000007fc2e0        0x0 /opt/intel/composer_xe_2013.3.163/compiler/lib/intel64/libimf.a(log10f_gen.o)
 .data          0x00000000007fc2e0        0x0 /opt/intel/composer_xe_2013.3.163/compiler/lib/intel64/libimf.a(log10_gen.o)
 .data          0x00000000007fc2e0        0x0 /opt/intel/composer_xe_2013.3.163/compiler/lib/intel64/libimf.a(log_ct.o)
 .data          0x00000000007fc2e0        0x0 /opt/intel/composer_xe_2013.3.163/compiler/lib/intel64/libimf.a(logf_table.o)
 .data          0x00000000007fc2e0        0x0 /opt/intel/composer_xe_2013.3.163/compiler/lib/intel64/libimf.a(log_gen.o)
 .data          0x00000000007fc2e0        0x0 /opt/intel/composer_xe_2013.3.163/compiler/lib/intel64/libimf.a(pow_ct.o)
 .data          0x00000000007fc2e0        0x0 /opt/intel/composer_xe_2013.3.163/compiler/lib/intel64/libimf.a(pow_gen.o)
 .data          0x00000000007fc2e0        0x0 /opt/intel/composer_xe_2013.3.163/compiler/lib/intel64/libimf.a(rcp_table.o)
 .data          0x00000000007fc2e0        0x0 /opt/intel/composer_xe_2013.3.163/compiler/lib/intel64/libimf.a(sincos_ct.o)
 .data          0x00000000007fc2e0        0x0 /opt/intel/composer_xe_2013.3.163/compiler/lib/intel64/libimf.a(sincosf_ct.o)
 .data          0x00000000007fc2e0        0x0 /opt/intel/composer_xe_2013.3.163/compiler/lib/intel64/libimf.a(sincosf_gen.o)
 .data          0x00000000007fc2e0        0x0 /opt/intel/composer_xe_2013.3.163/compiler/lib/intel64/libimf.a(sincos_gen.o)
 .data          0x00000000007fc2e0        0x0 /opt/intel/composer_xe_2013.3.163/compiler/lib/intel64/libimf.a(sin_ct.o)
 .data          0x00000000007fc2e0        0x0 /opt/intel/composer_xe_2013.3.163/compiler/lib/intel64/libimf.a(sin_gen.o)
 .data          0x00000000007fc2e0        0x0 /opt/intel/composer_xe_2013.3.163/compiler/lib/intel64/libimf.a(sin_pnr.o)
 .data          0x00000000007fc2e0        0x0 /opt/intel/composer_xe_2013.3.163/compiler/lib/intel64/libimf.a(tan_ct.o)
 .data          0x00000000007fc2e0        0x0 /opt/intel/composer_xe_2013.3.163/compiler/lib/intel64/libimf.a(tan_gen.o)
 .data          0x00000000007fc2e0        0x0 /d/bh0/home/matt/autoconf/DV/DVCliser//libDVCliser.a(DVCliser.o)
 .data          0x00000000007fc2e0        0x0 /opt/intel/composer_xe_2013.3.163/compiler/lib/intel64/libimf.a(acosdf.o)
 .data          0x00000000007fc2e0        0x0 /opt/intel/composer_xe_2013.3.163/compiler/lib/intel64/libimf.a(acosdq_stub.o)
 .data          0x00000000007fc2e0        0x0 /opt/intel/composer_xe_2013.3.163/compiler/lib/intel64/libimf.a(acosd_stub.o)
 .data          0x00000000007fc2e0        0x0 /opt/intel/composer_xe_2013.3.163/compiler/lib/intel64/libimf.a(acoshq_stub.o)
 .data          0x00000000007fc2e0        0x0 /opt/intel/composer_xe_2013.3.163/compiler/lib/intel64/libimf.a(acosq_stub.o)
 .data          0x00000000007fc2e0        0x0 /opt/intel/composer_xe_2013.3.163/compiler/lib/intel64/libimf.a(asindf.o)
 .data          0x00000000007fc2e0        0x0 /opt/intel/composer_xe_2013.3.163/compiler/lib/intel64/libimf.a(asindq_stub.o)
 .data          0x00000000007fc2e0        0x0 /opt/intel/composer_xe_2013.3.163/compiler/lib/intel64/libimf.a(asind_stub.o)
 .data          0x00000000007fc2e0        0x0 /opt/intel/composer_xe_2013.3.163/compiler/lib/intel64/libimf.a(asinhq_stub.o)
 .data          0x00000000007fc2e0        0x0 /opt/intel/composer_xe_2013.3.163/compiler/lib/intel64/libimf.a(asinq_stub.o)
 .data          0x00000000007fc2e0        0x0 /opt/intel/composer_xe_2013.3.163/compiler/lib/intel64/libimf.a(atan2dq_stub.o)
 .data          0x00000000007fc2e0        0x0 /opt/intel/composer_xe_2013.3.163/compiler/lib/intel64/libimf.a(atan2q_stub.o)
 .data          0x00000000007fc2e0        0x0 /opt/intel/composer_xe_2013.3.163/compiler/lib/intel64/libimf.a(atandf.o)
 .data          0x00000000007fc2e0        0x0 /opt/intel/composer_xe_2013.3.163/compiler/lib/intel64/libimf.a(atand.o)
 .data          0x00000000007fc2e0        0x0 /opt/intel/composer_xe_2013.3.163/compiler/lib/intel64/libimf.a(atandq_stub.o)
 .data          0x00000000007fc2e0        0x0 /opt/intel/composer_xe_2013.3.163/compiler/lib/intel64/libimf.a(atanhq_stub.o)
 .data          0x00000000007fc2e0        0x0 /opt/intel/composer_xe_2013.3.163/compiler/lib/intel64/libimf.a(atanq_stub.o)
 .data          0x00000000007fc2e0        0x0 /opt/intel/composer_xe_2013.3.163/compiler/lib/intel64/libimf.a(cabsq.o)
 .data          0x00000000007fc2e0        0x0 /opt/intel/composer_xe_2013.3.163/compiler/lib/intel64/libimf.a(cbrtq_stub.o)
 .data          0x00000000007fc2e0        0x0 /opt/intel/composer_xe_2013.3.163/compiler/lib/intel64/libimf.a(ccoshq.o)
 .data          0x00000000007fc2e0        0x0 /opt/intel/composer_xe_2013.3.163/compiler/lib/intel64/libimf.a(ccosq.o)
 .data          0x00000000007fc2e0        0x0 /opt/intel/composer_xe_2013.3.163/compiler/lib/intel64/libimf.a(ceilq.o)
 .data          0x00000000007fc2e0        0x0 /opt/intel/composer_xe_2013.3.163/compiler/lib/intel64/libimf.a(cexp10f.o)
 .data          0x00000000007fc2e0        0x0 /opt/intel/composer_xe_2013.3.163/compiler/lib/intel64/libimf.a(cexp10.o)
 .data          0x00000000007fc2e0        0x0 /opt/intel/composer_xe_2013.3.163/compiler/lib/intel64/libimf.a(cexp10q.o)
 .data          0x00000000007fc2e0        0x0 /opt/intel/composer_xe_2013.3.163/compiler/lib/intel64/libimf.a(cexpq.o)
 .data          0x00000000007fc2e0        0x0 /opt/intel/composer_xe_2013.3.163/compiler/lib/intel64/libimf.a(clog10q.o)
 .data          0x00000000007fc2e0        0x0 /opt/intel/composer_xe_2013.3.163/compiler/lib/intel64/libimf.a(clogq.o)
 .data          0x00000000007fc2e0        0x0 /opt/intel/composer_xe_2013.3.163/compiler/lib/intel64/libimf.a(const_q_table.o)
 .data          0x00000000007fc2e0        0x0 /opt/intel/composer_xe_2013.3.163/compiler/lib/intel64/libimf.a(cosdf_stub.o)
 .data          0x00000000007fc2e0        0x0 /opt/intel/composer_xe_2013.3.163/compiler/lib/intel64/libimf.a(cosdq_stub.o)
 .data          0x00000000007fc2e0        0x0 /opt/intel/composer_xe_2013.3.163/compiler/lib/intel64/libimf.a(cosd_stub.o)
 .data          0x00000000007fc2e0        0x0 /opt/intel/composer_xe_2013.3.163/compiler/lib/intel64/libimf.a(coshq_stub.o)
 .data          0x00000000007fc2e0        0x0 /opt/intel/composer_xe_2013.3.163/compiler/lib/intel64/libimf.a(cosq_stub.o)
 .data          0x00000000007fc2e0        0x0 /opt/intel/composer_xe_2013.3.163/compiler/lib/intel64/libimf.a(cotdf_stub.o)
 .data          0x00000000007fc2e0        0x0 /opt/intel/composer_xe_2013.3.163/compiler/lib/intel64/libimf.a(cotdq_stub.o)
 .data          0x00000000007fc2e0        0x0 /opt/intel/composer_xe_2013.3.163/compiler/lib/intel64/libimf.a(cotd_stub.o)
 .data          0x00000000007fc2e0        0x0 /opt/intel/composer_xe_2013.3.163/compiler/lib/intel64/libimf.a(cotf.o)
 .data          0x00000000007fc2e0        0x0 /opt/intel/composer_xe_2013.3.163/compiler/lib/intel64/libimf.a(cot.o)
 .data          0x00000000007fc2e0        0x0 /opt/intel/composer_xe_2013.3.163/compiler/lib/intel64/libimf.a(cotq_stub.o)
 .data          0x00000000007fc2e0        0x0 /opt/intel/composer_xe_2013.3.163/compiler/lib/intel64/libimf.a(cpowq.o)
 .data          0x00000000007fc2e0        0x0 /opt/intel/composer_xe_2013.3.163/compiler/lib/intel64/libimf.a(csinhq.o)
 .data          0x00000000007fc2e0        0x0 /opt/intel/composer_xe_2013.3.163/compiler/lib/intel64/libimf.a(csinq.o)
 .data          0x00000000007fc2e0        0x0 /opt/intel/composer_xe_2013.3.163/compiler/lib/intel64/libimf.a(csqrtq.o)
 .data          0x00000000007fc2e0        0x0 /opt/intel/composer_xe_2013.3.163/compiler/lib/intel64/libimf.a(ctanhq.o)
 .data          0x00000000007fc2e0        0x0 /opt/intel/composer_xe_2013.3.163/compiler/lib/intel64/libimf.a(ctanq.o)
 .data          0x00000000007fc2e0        0x0 /opt/intel/composer_xe_2013.3.163/compiler/lib/intel64/libimf.a(dpml_ux_bessel.o)
 .data          0x00000000007fc2e0        0x0 /opt/intel/composer_xe_2013.3.163/compiler/lib/intel64/libimf.a(dpml_ux_erf.o)
 .data          0x00000000007fc2e0        0x0 /opt/intel/composer_xe_2013.3.163/compiler/lib/intel64/libimf.a(dpml_ux_exp.o)
 .data          0x00000000007fc2e0        0x0 /opt/intel/composer_xe_2013.3.163/compiler/lib/intel64/libimf.a(dpml_ux_int.o)
 .data          0x00000000007fc2e0        0x0 /opt/intel/composer_xe_2013.3.163/compiler/lib/intel64/libimf.a(dpml_ux_lgamma.o)
 .data          0x00000000007fc2e0        0x0 /opt/intel/composer_xe_2013.3.163/compiler/lib/intel64/libimf.a(dpml_ux_log.o)
 .data          0x00000000007fc2e0        0x0 /opt/intel/composer_xe_2013.3.163/compiler/lib/intel64/libimf.a(dpml_ux_mod.o)
 .data          0x00000000007fc2e0        0x0 /opt/intel/composer_xe_2013.3.163/compiler/lib/intel64/libimf.a(dpml_ux_ops_64.o)
 .data          0x00000000007fc2e0        0x0 /opt/intel/composer_xe_2013.3.163/compiler/lib/intel64/libimf.a(dpml_ux_ops.o)
 .data          0x00000000007fc2e0        0x0 /opt/intel/composer_xe_2013.3.163/compiler/lib/intel64/libimf.a(dpml_ux_powi.o)
 .data          0x00000000007fc2e0        0x0 /opt/intel/composer_xe_2013.3.163/compiler/lib/intel64/libimf.a(dpml_ux_sqrt.o)
 .data          0x00000000007fc2e0        0x0 /opt/intel/composer_xe_2013.3.163/compiler/lib/intel64/libimf.a(dpml_ux_trig.o)
 .data          0x00000000007fc2e0        0x0 /opt/intel/composer_xe_2013.3.163/compiler/lib/intel64/libimf.a(exp10q_stub.o)
 .data          0x00000000007fc2e0        0x0 /opt/intel/composer_xe_2013.3.163/compiler/lib/intel64/libimf.a(exp2q_stub.o)
 .data          0x00000000007fc2e0        0x0 /opt/intel/composer_xe_2013.3.163/compiler/lib/intel64/libimf.a(expq_stub.o)
 .data          0x00000000007fc2e0        0x0 /opt/intel/composer_xe_2013.3.163/compiler/lib/intel64/libimf.a(fabsq.o)
 .data          0x00000000007fc2e0        0x0 /opt/intel/composer_xe_2013.3.163/compiler/lib/intel64/libimf.a(floorq.o)
 .data          0x00000000007fc2e0        0x0 /opt/intel/composer_xe_2013.3.163/compiler/lib/intel64/libimf.a(frexpq.o)
 .data          0x00000000007fc2e0        0x0 /opt/intel/composer_xe_2013.3.163/compiler/lib/intel64/libimf.a(hypotq_stub.o)
 .data          0x00000000007fc2e0        0x0 /opt/intel/composer_xe_2013.3.163/compiler/lib/intel64/libimf.a(intel_quad_exception.o)
 .data          0x00000000007fc2e0        0x0 /opt/intel/composer_xe_2013.3.163/compiler/lib/intel64/libimf.a(ldexpq.o)
 .data          0x00000000007fc2e0        0x0 /opt/intel/composer_xe_2013.3.163/compiler/lib/intel64/libimf.a(libm128_error.o)
 .data          0x00000000007fc2e0        0x0 /opt/intel/composer_xe_2013.3.163/compiler/lib/intel64/libimf.a(libm_exp10_k64.o)
 .data          0x00000000007fc2e0        0x0 /opt/intel/composer_xe_2013.3.163/compiler/lib/intel64/libimf.a(libm_mul_k64.o)
 .data          0x00000000007fc2e0        0x0 /opt/intel/composer_xe_2013.3.163/compiler/lib/intel64/libimf.a(libm_sincosln10_k64.o)
 .data          0x00000000007fc2e0        0x0 /opt/intel/composer_xe_2013.3.163/compiler/lib/intel64/libimf.a(log10q_stub.o)
 .data          0x00000000007fc2e0        0x0 /opt/intel/composer_xe_2013.3.163/compiler/lib/intel64/libimf.a(log2q_stub.o)
 .data          0x00000000007fc2e0        0x0 /opt/intel/composer_xe_2013.3.163/compiler/lib/intel64/libimf.a(logq_stub.o)
 .data          0x00000000007fc2e0        0x0 /opt/intel/composer_xe_2013.3.163/compiler/lib/intel64/libimf.a(nextafterq.o)
 .data          0x00000000007fc2e0        0x0 /opt/intel/composer_xe_2013.3.163/compiler/lib/intel64/libimf.a(powq_stub.o)
 .data          0x00000000007fc2e0        0x0 /opt/intel/composer_xe_2013.3.163/compiler/lib/intel64/libimf.a(rintq.o)
 .data          0x00000000007fc2e0        0x0 /opt/intel/composer_xe_2013.3.163/compiler/lib/intel64/libimf.a(scalbnq.o)
 .data          0x00000000007fc2e0        0x0 /opt/intel/composer_xe_2013.3.163/compiler/lib/intel64/libimf.a(sindf_stub.o)
 .data          0x00000000007fc2e0        0x0 /opt/intel/composer_xe_2013.3.163/compiler/lib/intel64/libimf.a(sindq_stub.o)
 .data          0x00000000007fc2e0        0x0 /opt/intel/composer_xe_2013.3.163/compiler/lib/intel64/libimf.a(sind_stub.o)
 .data          0x00000000007fc2e0        0x0 /opt/intel/composer_xe_2013.3.163/compiler/lib/intel64/libimf.a(sinhq_stub.o)
 .data          0x00000000007fc2e0        0x0 /opt/intel/composer_xe_2013.3.163/compiler/lib/intel64/libimf.a(sinq_stub.o)
 .data          0x00000000007fc2e0        0x0 /opt/intel/composer_xe_2013.3.163/compiler/lib/intel64/libimf.a(sqrt_tab_t.o)
 .data          0x00000000007fc2e0        0x0 /opt/intel/composer_xe_2013.3.163/compiler/lib/intel64/libimf.a(tandf_stub.o)
 .data          0x00000000007fc2e0        0x0 /opt/intel/composer_xe_2013.3.163/compiler/lib/intel64/libimf.a(tandq_stub.o)
 .data          0x00000000007fc2e0        0x0 /opt/intel/composer_xe_2013.3.163/compiler/lib/intel64/libimf.a(tand_stub.o)
 .data          0x00000000007fc2e0        0x0 /opt/intel/composer_xe_2013.3.163/compiler/lib/intel64/libimf.a(tanhq_stub.o)
 .data          0x00000000007fc2e0        0x0 /opt/intel/composer_xe_2013.3.163/compiler/lib/intel64/libimf.a(tanq_stub.o)
 .data          0x00000000007fc2e0        0x0 /opt/intel/composer_xe_2013.3.163/compiler/lib/intel64/libimf.a(trig_pi_bits.o)
 .data          0x00000000007fc2e0        0x0 /opt/intel/composer_xe_2013.3.163/compiler/lib/intel64/libimf.a(truncq.o)
 .data          0x00000000007fc2e0        0x0 /opt/intel/composer_xe_2013.3.163/compiler/lib/intel64/libimf.a(acosd_ct.o)
 .data          0x00000000007fc2e0        0x0 /opt/intel/composer_xe_2013.3.163/compiler/lib/intel64/libimf.a(acosd_gen.o)
 .data          0x00000000007fc2e0        0x0 /opt/intel/composer_xe_2013.3.163/compiler/lib/intel64/libimf.a(acosdq_ct.o)
 .data          0x00000000007fc2e0        0x0 /opt/intel/composer_xe_2013.3.163/compiler/lib/intel64/libimf.a(acosdq_gen.o)
 .data          0x00000000007fc2e0        0x0 /opt/intel/composer_xe_2013.3.163/compiler/lib/intel64/libimf.a(acoshq_ct.o)
 .data          0x00000000007fc2e0        0x0 /opt/intel/composer_xe_2013.3.163/compiler/lib/intel64/libimf.a(acoshq_gen.o)
 .data          0x00000000007fc2e0        0x0 /opt/intel/composer_xe_2013.3.163/compiler/lib/intel64/libimf.a(acosq_ct.o)
 .data          0x00000000007fc2e0        0x0 /opt/intel/composer_xe_2013.3.163/compiler/lib/intel64/libimf.a(acosq_gen.o)
 .data          0x00000000007fc2e0        0x0 /opt/intel/composer_xe_2013.3.163/compiler/lib/intel64/libimf.a(asind_ct.o)
 .data          0x00000000007fc2e0        0x0 /opt/intel/composer_xe_2013.3.163/compiler/lib/intel64/libimf.a(asind_gen.o)
 .data          0x00000000007fc2e0        0x0 /opt/intel/composer_xe_2013.3.163/compiler/lib/intel64/libimf.a(asindq_ct.o)
 .data          0x00000000007fc2e0        0x0 /opt/intel/composer_xe_2013.3.163/compiler/lib/intel64/libimf.a(asindq_gen.o)
 .data          0x00000000007fc2e0        0x0 /opt/intel/composer_xe_2013.3.163/compiler/lib/intel64/libimf.a(asinhq_ct.o)
 .data          0x00000000007fc2e0        0x0 /opt/intel/composer_xe_2013.3.163/compiler/lib/intel64/libimf.a(asinhq_gen.o)
 .data          0x00000000007fc2e0        0x0 /opt/intel/composer_xe_2013.3.163/compiler/lib/intel64/libimf.a(asinq_ct.o)
 .data          0x00000000007fc2e0        0x0 /opt/intel/composer_xe_2013.3.163/compiler/lib/intel64/libimf.a(asinq_gen.o)
 .data          0x00000000007fc2e0        0x0 /opt/intel/composer_xe_2013.3.163/compiler/lib/intel64/libimf.a(atan2dq_ct.o)
 .data          0x00000000007fc2e0        0x0 /opt/intel/composer_xe_2013.3.163/compiler/lib/intel64/libimf.a(atan2dq_gen.o)
 .data          0x00000000007fc2e0        0x0 /opt/intel/composer_xe_2013.3.163/compiler/lib/intel64/libimf.a(atan2q_ct.o)
 .data          0x00000000007fc2e0        0x0 /opt/intel/composer_xe_2013.3.163/compiler/lib/intel64/libimf.a(atan2q_gen.o)
 .data          0x00000000007fc2e0        0x0 /opt/intel/composer_xe_2013.3.163/compiler/lib/intel64/libimf.a(atandq_ct.o)
 .data          0x00000000007fc2e0        0x0 /opt/intel/composer_xe_2013.3.163/compiler/lib/intel64/libimf.a(atandq_gen.o)
 .data          0x00000000007fc2e0        0x0 /opt/intel/composer_xe_2013.3.163/compiler/lib/intel64/libimf.a(atanhq_ct.o)
 .data          0x00000000007fc2e0        0x0 /opt/intel/composer_xe_2013.3.163/compiler/lib/intel64/libimf.a(atanhq_gen.o)
 .data          0x00000000007fc2e0        0x0 /opt/intel/composer_xe_2013.3.163/compiler/lib/intel64/libimf.a(atanq_ct.o)
 .data          0x00000000007fc2e0        0x0 /opt/intel/composer_xe_2013.3.163/compiler/lib/intel64/libimf.a(atanq_gen.o)
 .data          0x00000000007fc2e0        0x0 /opt/intel/composer_xe_2013.3.163/compiler/lib/intel64/libimf.a(atanq_table.o)
 .data          0x00000000007fc2e0        0x0 /opt/intel/composer_xe_2013.3.163/compiler/lib/intel64/libimf.a(cbrtq_ct.o)
 .data          0x00000000007fc2e0        0x0 /opt/intel/composer_xe_2013.3.163/compiler/lib/intel64/libimf.a(cbrtq_gen.o)
 .data          0x00000000007fc2e0        0x0 /opt/intel/composer_xe_2013.3.163/compiler/lib/intel64/libimf.a(copysignq.o)
 .data          0x00000000007fc2e0        0x0 /opt/intel/composer_xe_2013.3.163/compiler/lib/intel64/libimf.a(cosd_ct.o)
 .data          0x00000000007fc2e0        0x0 /opt/intel/composer_xe_2013.3.163/compiler/lib/intel64/libimf.a(cosdf_ct.o)
 .data          0x00000000007fc2e0        0x0 /opt/intel/composer_xe_2013.3.163/compiler/lib/intel64/libimf.a(cosdf_gen.o)
 .data          0x00000000007fc2e0        0x0 /opt/intel/composer_xe_2013.3.163/compiler/lib/intel64/libimf.a(cosd_gen.o)
 .data          0x00000000007fc2e0        0x0 /opt/intel/composer_xe_2013.3.163/compiler/lib/intel64/libimf.a(cosdq_ct.o)
 .data          0x00000000007fc2e0        0x0 /opt/intel/composer_xe_2013.3.163/compiler/lib/intel64/libimf.a(cosdq_gen.o)
 .data          0x00000000007fc2e0        0x0 /opt/intel/composer_xe_2013.3.163/compiler/lib/intel64/libimf.a(coshq_ct.o)
 .data          0x00000000007fc2e0        0x0 /opt/intel/composer_xe_2013.3.163/compiler/lib/intel64/libimf.a(coshq_gen.o)
 .data          0x00000000007fc2e0        0x0 /opt/intel/composer_xe_2013.3.163/compiler/lib/intel64/libimf.a(cosq_ct.o)
 .data          0x00000000007fc2e0        0x0 /opt/intel/composer_xe_2013.3.163/compiler/lib/intel64/libimf.a(cosq_gen.o)
 .data          0x00000000007fc2e0        0x0 /opt/intel/composer_xe_2013.3.163/compiler/lib/intel64/libimf.a(cotd_ct.o)
 .data          0x00000000007fc2e0        0x0 /opt/intel/composer_xe_2013.3.163/compiler/lib/intel64/libimf.a(cotdf_ct.o)
 .data          0x00000000007fc2e0        0x0 /opt/intel/composer_xe_2013.3.163/compiler/lib/intel64/libimf.a(cotdf_gen.o)
 .data          0x00000000007fc2e0        0x0 /opt/intel/composer_xe_2013.3.163/compiler/lib/intel64/libimf.a(cotd_gen.o)
 .data          0x00000000007fc2e0        0x0 /opt/intel/composer_xe_2013.3.163/compiler/lib/intel64/libimf.a(cotdq_ct.o)
 .data          0x00000000007fc2e0        0x0 /opt/intel/composer_xe_2013.3.163/compiler/lib/intel64/libimf.a(cotdq_gen.o)
 .data          0x00000000007fc2e0        0x0 /opt/intel/composer_xe_2013.3.163/compiler/lib/intel64/libimf.a(cotq_ct.o)
 .data          0x00000000007fc2e0        0x0 /opt/intel/composer_xe_2013.3.163/compiler/lib/intel64/libimf.a(cotq_gen.o)
 .data          0x00000000007fc2e0        0x0 /opt/intel/composer_xe_2013.3.163/compiler/lib/intel64/libimf.a(exp10q_ct.o)
 .data          0x00000000007fc2e0        0x0 /opt/intel/composer_xe_2013.3.163/compiler/lib/intel64/libimf.a(exp10q_gen.o)
 .data          0x00000000007fc2e0        0x0 /opt/intel/composer_xe_2013.3.163/compiler/lib/intel64/libimf.a(exp2q_ct.o)
 .data          0x00000000007fc2e0        0x0 /opt/intel/composer_xe_2013.3.163/compiler/lib/intel64/libimf.a(exp2q_gen.o)
 .data          0x00000000007fc2e0        0x0 /opt/intel/composer_xe_2013.3.163/compiler/lib/intel64/libimf.a(expq_ct.o)
 .data          0x00000000007fc2e0        0x0 /opt/intel/composer_xe_2013.3.163/compiler/lib/intel64/libimf.a(expq_gen.o)
 .data          0x00000000007fc2e0        0x0 /opt/intel/composer_xe_2013.3.163/compiler/lib/intel64/libimf.a(expq_tm1z_table.o)
 .data          0x00000000007fc2e0        0x0 /opt/intel/composer_xe_2013.3.163/compiler/lib/intel64/libimf.a(expq_tz_table.o)
 .data          0x00000000007fc2e0        0x0 /opt/intel/composer_xe_2013.3.163/compiler/lib/intel64/libimf.a(exp_table.o)
 .data          0x00000000007fc2e0        0x0 /opt/intel/composer_xe_2013.3.163/compiler/lib/intel64/libimf.a(hypotq_ct.o)
 .data          0x00000000007fc2e0        0x0 /opt/intel/composer_xe_2013.3.163/compiler/lib/intel64/libimf.a(hypotq_gen.o)
 .data          0x00000000007fc2e0        0x0 /opt/intel/composer_xe_2013.3.163/compiler/lib/intel64/libimf.a(libm128_basics.o)
 .data          0x00000000007fc2e0        0x0 /opt/intel/composer_xe_2013.3.163/compiler/lib/intel64/libimf.a(libm128_l_ops.o)
 .data          0x00000000007fc2e0        0x0 /opt/intel/composer_xe_2013.3.163/compiler/lib/intel64/libimf.a(libm128_reduce_pi04q.o)
 .data          0x00000000007fc2e0        0x0 /opt/intel/composer_xe_2013.3.163/compiler/lib/intel64/libimf.a(libm128_x_ops.o)
 .data          0x00000000007fc2e0        0x0 /opt/intel/composer_xe_2013.3.163/compiler/lib/intel64/libimf.a(libm_reduce_pio2ln10.o)
 .data          0x00000000007fc2e0        0x0 /opt/intel/composer_xe_2013.3.163/compiler/lib/intel64/libimf.a(log10q_ct.o)
 .data          0x00000000007fc2e0        0x0 /opt/intel/composer_xe_2013.3.163/compiler/lib/intel64/libimf.a(log10q_gen.o)
 .data          0x00000000007fc2e0        0x0 /opt/intel/composer_xe_2013.3.163/compiler/lib/intel64/libimf.a(log2q_ct.o)
 .data          0x00000000007fc2e0        0x0 /opt/intel/composer_xe_2013.3.163/compiler/lib/intel64/libimf.a(log2q_gen.o)
 .data          0x00000000007fc2e0        0x0 /opt/intel/composer_xe_2013.3.163/compiler/lib/intel64/libimf.a(logq_ct.o)
 .data          0x00000000007fc2e0        0x0 /opt/intel/composer_xe_2013.3.163/compiler/lib/intel64/libimf.a(logq_gen.o)
 .data          0x00000000007fc2e0        0x0 /opt/intel/composer_xe_2013.3.163/compiler/lib/intel64/libimf.a(logq_hl2z_table.o)
 .data          0x00000000007fc2e0        0x0 /opt/intel/composer_xe_2013.3.163/compiler/lib/intel64/libimf.a(logq_hlgz_table.o)
 .data          0x00000000007fc2e0        0x0 /opt/intel/composer_xe_2013.3.163/compiler/lib/intel64/libimf.a(logq_hlnz_table.o)
 .data          0x00000000007fc2e0        0x0 /opt/intel/composer_xe_2013.3.163/compiler/lib/intel64/libimf.a(logq_zg_table.o)
 .data          0x00000000007fc2e0        0x0 /opt/intel/composer_xe_2013.3.163/compiler/lib/intel64/libimf.a(powq_ct.o)
 .data          0x00000000007fc2e0        0x0 /opt/intel/composer_xe_2013.3.163/compiler/lib/intel64/libimf.a(powq_gen.o)
 .data          0x00000000007fc2e0        0x0 /opt/intel/composer_xe_2013.3.163/compiler/lib/intel64/libimf.a(rcpq_table.o)
 .data          0x00000000007fc2e0        0x0 /opt/intel/composer_xe_2013.3.163/compiler/lib/intel64/libimf.a(roundq.o)
 .data          0x00000000007fc2e0        0x0 /opt/intel/composer_xe_2013.3.163/compiler/lib/intel64/libimf.a(scaleq_table.o)
 .data          0x00000000007fc2e0        0x0 /opt/intel/composer_xe_2013.3.163/compiler/lib/intel64/libimf.a(sincosdq_table.o)
 .data          0x00000000007fc2e0        0x0 /opt/intel/composer_xe_2013.3.163/compiler/lib/intel64/libimf.a(sincosd_table.o)
 .data          0x00000000007fc2e0        0x0 /opt/intel/composer_xe_2013.3.163/compiler/lib/intel64/libimf.a(sincosq_table.o)
 .data          0x00000000007fc2e0        0x0 /opt/intel/composer_xe_2013.3.163/compiler/lib/intel64/libimf.a(sind_ct.o)
 .data          0x00000000007fc2e0        0x0 /opt/intel/composer_xe_2013.3.163/compiler/lib/intel64/libimf.a(sindf_ct.o)
 .data          0x00000000007fc2e0        0x0 /opt/intel/composer_xe_2013.3.163/compiler/lib/intel64/libimf.a(sindf_gen.o)
 .data          0x00000000007fc2e0        0x0 /opt/intel/composer_xe_2013.3.163/compiler/lib/intel64/libimf.a(sind_gen.o)
 .data          0x00000000007fc2e0        0x0 /opt/intel/composer_xe_2013.3.163/compiler/lib/intel64/libimf.a(sindq_ct.o)
 .data          0x00000000007fc2e0        0x0 /opt/intel/composer_xe_2013.3.163/compiler/lib/intel64/libimf.a(sindq_gen.o)
 .data          0x00000000007fc2e0        0x0 /opt/intel/composer_xe_2013.3.163/compiler/lib/intel64/libimf.a(sinhq_ct.o)
 .data          0x00000000007fc2e0        0x0 /opt/intel/composer_xe_2013.3.163/compiler/lib/intel64/libimf.a(sinhq_gen.o)
 .data          0x00000000007fc2e0        0x0 /opt/intel/composer_xe_2013.3.163/compiler/lib/intel64/libimf.a(sinq_ct.o)
 .data          0x00000000007fc2e0        0x0 /opt/intel/composer_xe_2013.3.163/compiler/lib/intel64/libimf.a(sinq_gen.o)
 .data          0x00000000007fc2e0        0x0 /opt/intel/composer_xe_2013.3.163/compiler/lib/intel64/libimf.a(tancotdq_table.o)
 .data          0x00000000007fc2e0        0x0 /opt/intel/composer_xe_2013.3.163/compiler/lib/intel64/libimf.a(tand_ct.o)
 .data          0x00000000007fc2e0        0x0 /opt/intel/composer_xe_2013.3.163/compiler/lib/intel64/libimf.a(tandf_ct.o)
 .data          0x00000000007fc2e0        0x0 /opt/intel/composer_xe_2013.3.163/compiler/lib/intel64/libimf.a(tandf_gen.o)
 .data          0x00000000007fc2e0        0x0 /opt/intel/composer_xe_2013.3.163/compiler/lib/intel64/libimf.a(tand_gen.o)
 .data          0x00000000007fc2e0        0x0 /opt/intel/composer_xe_2013.3.163/compiler/lib/intel64/libimf.a(tandq_ct.o)
 .data          0x00000000007fc2e0        0x0 /opt/intel/composer_xe_2013.3.163/compiler/lib/intel64/libimf.a(tandq_gen.o)
 .data          0x00000000007fc2e0        0x0 /opt/intel/composer_xe_2013.3.163/compiler/lib/intel64/libimf.a(tanhq_ct.o)
 .data          0x00000000007fc2e0        0x0 /opt/intel/composer_xe_2013.3.163/compiler/lib/intel64/libimf.a(tanhq_gen.o)
 .data          0x00000000007fc2e0        0x0 /opt/intel/composer_xe_2013.3.163/compiler/lib/intel64/libimf.a(tanq_ct.o)
 .data          0x00000000007fc2e0        0x0 /opt/intel/composer_xe_2013.3.163/compiler/lib/intel64/libimf.a(tanq_gen.o)
 .data          0x00000000007fc2e0        0x0 /opt/intel/composer_xe_2013.3.163/compiler/lib/intel64/libimf.a(expq_table.o)
 .data          0x00000000007fc2e0        0x0 /opt/intel/composer_xe_2013.3.163/compiler/lib/intel64/libimf.a(invsqrtl.o)
 .data          0x00000000007fc2e0        0x0 /opt/intel/composer_xe_2013.3.163/compiler/lib/intel64/libimf.a(libm128_y_ops.o)
 .data          0x00000000007fc2e0        0x0 /opt/intel/composer_xe_2013.3.163/compiler/lib/intel64/libimf.a(logq_table.o)
 .data          0x00000000007fc2e0        0x0 /opt/intel/composer_xe_2013.3.163/compiler/lib/intel64/libirc.a(ints2q.o)
 .data          0x00000000007fc2e0        0x0 /opt/intel/composer_xe_2013.3.163/compiler/lib/intel64/libirc.a(negq.o)
 .data          0x00000000007fc2e0        0x0 /opt/intel/composer_xe_2013.3.163/compiler/lib/intel64/libirc.a(qcomp.o)
 .data          0x00000000007fc2e0        0x0 /opt/intel/composer_xe_2013.3.163/compiler/lib/intel64/libirc.a(q2ints.o)
 .data          0x00000000007fc2e0        0x0 /opt/intel/composer_xe_2013.3.163/compiler/lib/intel64/libirc.a(fp2q.o)
 .data          0x00000000007fc2e0       0x28 /opt/intel/composer_xe_2013.3.163/compiler/lib/intel64/libirc.a(q2fp.o)
 .data          0x00000000007fc308        0x0 /opt/intel/composer_xe_2013.3.163/compiler/lib/intel64/libirc.a(w_addq.o)
 .data          0x00000000007fc308        0x0 /opt/intel/composer_xe_2013.3.163/compiler/lib/intel64/libirc.a(w_geq.o)
 .data          0x00000000007fc308        0x0 /opt/intel/composer_xe_2013.3.163/compiler/lib/intel64/libirc.a(w_leq.o)
 .data          0x00000000007fc308        0x0 /opt/intel/composer_xe_2013.3.163/compiler/lib/intel64/libirc.a(w_mulq.o)
 .data          0x00000000007fc308        0x0 /opt/intel/composer_xe_2013.3.163/compiler/lib/intel64/libirc.a(w_subq.o)
 .data          0x00000000007fc308        0x0 /opt/intel/composer_xe_2013.3.163/compiler/lib/intel64/libirc.a(w_caddq.o)
 .data          0x00000000007fc308        0x0 /opt/intel/composer_xe_2013.3.163/compiler/lib/intel64/libirc.a(w_cmulq.o)
 .data          0x00000000007fc308        0x0 /opt/intel/composer_xe_2013.3.163/compiler/lib/intel64/libirc.a(w_csubq.o)
 .data          0x00000000007fc308        0x0 /opt/intel/composer_xe_2013.3.163/compiler/lib/intel64/libirc.a(tbk_display.o)
 .data          0x00000000007fc308        0x0 /opt/intel/composer_xe_2013.3.163/compiler/lib/intel64/libirc.a(tbk_backtrace.o)
 .data          0x00000000007fc308        0x0 /opt/intel/composer_xe_2013.3.163/compiler/lib/intel64/libirc.a(ia32_memcmp.o)
 .data          0x00000000007fc308        0x0 /opt/intel/composer_xe_2013.3.163/compiler/lib/intel64/libirc.a(cpu_disp.o)
 .data          0x00000000007fc308        0x0 /opt/intel/composer_xe_2013.3.163/compiler/lib/intel64/libirc.a(cpu_feature_dispx.o)
 .data          0x00000000007fc308        0x0 /opt/intel/composer_xe_2013.3.163/compiler/lib/intel64/libirc.a(fastmemcpy.o)
 .data          0x00000000007fc308        0x0 /opt/intel/composer_xe_2013.3.163/compiler/lib/intel64/libirc.a(fastmemset.o)
 .data          0x00000000007fc308        0x0 /opt/intel/composer_xe_2013.3.163/compiler/lib/intel64/libirc.a(proc_init.o)
 .data          0x00000000007fc308        0x0 /opt/intel/composer_xe_2013.3.163/compiler/lib/intel64/libirc.a(proc_init_utils.o)
 .data          0x00000000007fc308       0x28 /opt/intel/composer_xe_2013.3.163/compiler/lib/intel64/libirc.a(ia32_addsubq.o)
 .data          0x00000000007fc330       0x30 /opt/intel/composer_xe_2013.3.163/compiler/lib/intel64/libirc.a(ia32_mulq.o)
 .data          0x00000000007fc360       0x30 /opt/intel/composer_xe_2013.3.163/compiler/lib/intel64/libirc.a(ia32_divq.o)
 .data          0x00000000007fc390        0x0 /opt/intel/composer_xe_2013.3.163/compiler/lib/intel64/libirc.a(sse2_strcspn.o)
 .data          0x00000000007fc390        0x0 /opt/intel/composer_xe_2013.3.163/compiler/lib/intel64/libirc.a(sse2_strtok.o)
 .data          0x00000000007fc390        0x0 /opt/intel/composer_xe_2013.3.163/compiler/lib/intel64/libirc.a(sse2_strcpy.o)
 .data          0x00000000007fc390        0x0 /opt/intel/composer_xe_2013.3.163/compiler/lib/intel64/libirc.a(sse2_strncpy.o)
 .data          0x00000000007fc390        0x0 /opt/intel/composer_xe_2013.3.163/compiler/lib/intel64/libirc.a(sse2_strlen.o)
 .data          0x00000000007fc390        0x0 /opt/intel/composer_xe_2013.3.163/compiler/lib/intel64/libirc.a(sse2_strchr.o)
 .data          0x00000000007fc390        0x0 /opt/intel/composer_xe_2013.3.163/compiler/lib/intel64/libirc.a(sse2_strncmp.o)
 .data          0x00000000007fc390        0x0 /opt/intel/composer_xe_2013.3.163/compiler/lib/intel64/libirc.a(sse2_strcat.o)
 .data          0x00000000007fc390        0x0 /opt/intel/composer_xe_2013.3.163/compiler/lib/intel64/libirc.a(sse2_strncat.o)
 .data          0x00000000007fc390        0x0 /opt/intel/composer_xe_2013.3.163/compiler/lib/intel64/libirc.a(sse2_strdup.o)
 .data          0x00000000007fc390        0x0 /opt/intel/composer_xe_2013.3.163/compiler/lib/intel64/libirc.a(fast_memcpy_pp.o)
 .data          0x00000000007fc390        0x0 /opt/intel/composer_xe_2013.3.163/compiler/lib/intel64/libirc.a(fast_memset_pp.o)
 .data          0x00000000007fc390        0x0 /opt/intel/composer_xe_2013.3.163/compiler/lib/intel64/libirc.a(intel_ssse3_memcpy.o)
 .data          0x00000000007fc390        0x0 /opt/intel/composer_xe_2013.3.163/compiler/lib/intel64/libirc.a(intel_ssse3_rep_memcpy.o)
 .data          0x00000000007fc390        0x8 /opt/intel/composer_xe_2013.3.163/compiler/lib/intel64/libirc.a(irc_msg_support.o)
 *fill*         0x00000000007fc398        0x8 
 .data          0x00000000007fc3a0      0x820 /opt/intel/composer_xe_2013.3.163/compiler/lib/intel64/libirc.a(fast_mem_ops.o)
                0x00000000007fcba0                __libirc_largest_cache_size
                0x00000000007fcba4                __libirc_largest_cache_size_half
                0x00000000007fcba8                __libirc_data_cache_size
                0x00000000007fcbac                __libirc_data_cache_size_half
 .data          0x00000000007fcbc0        0x0 /usr/lib64/libc_nonshared.a(elf-init.oS)
 .data          0x00000000007fcbc0        0x0 /usr/lib64/libc_nonshared.a(stat.oS)
 .data          0x00000000007fcbc0        0x0 /usr/lib/gcc/x86_64-mageia-linux-gnu/4.8.2/crtend.o
 .data          0x00000000007fcbc0        0x0 /usr/lib/gcc/x86_64-mageia-linux-gnu/4.8.2/../../../../lib64/crtn.o

.tm_clone_table
                0x00000000007fcbc0        0x0
 .tm_clone_table
                0x00000000007fcbc0        0x0 /usr/lib/gcc/x86_64-mageia-linux-gnu/4.8.2/crtbegin.o
 .tm_clone_table
                0x00000000007fcbc0        0x0 /usr/lib/gcc/x86_64-mageia-linux-gnu/4.8.2/crtend.o

.data1
 *(.data1)
                0x00000000007fcbc0                _edata = .
                0x00000000007fcbc0                PROVIDE (edata, .)
                0x00000000007fcbc0                . = .
                0x00000000007fcbc0                __bss_start = .

.bss            0x00000000007fcbc0    0xb2208
 *(.dynbss)
 .dynbss        0x00000000007fcbc0       0x28 /usr/lib/gcc/x86_64-mageia-linux-gnu/4.8.2/../../../../lib64/crt1.o
                0x00000000007fcbc0                stdout@@GLIBC_2.2.5
                0x00000000007fcbc8                fl_display
                0x00000000007fcbd0                fl_calloc
                0x00000000007fcbd8                stdin@@GLIBC_2.2.5
                0x00000000007fcbe0                stderr@@GLIBC_2.2.5
 *(.bss .bss.* .gnu.linkonce.b.*)
 .bss           0x00000000007fcbe8        0x0 /usr/lib/gcc/x86_64-mageia-linux-gnu/4.8.2/../../../../lib64/crt1.o
 .bss           0x00000000007fcbe8        0x0 /usr/lib/gcc/x86_64-mageia-linux-gnu/4.8.2/../../../../lib64/crti.o
 .bss           0x00000000007fcbe8        0x1 /usr/lib/gcc/x86_64-mageia-linux-gnu/4.8.2/crtbegin.o
 *fill*         0x00000000007fcbe9        0x3 
 .bss           0x00000000007fcbec        0x0 DV.o
 .bss           0x00000000007fcbec        0x0 reg.o
 .bss           0x00000000007fcbec        0x0 misc.o
 .bss           0x00000000007fcbec        0x0 instr.o
 *fill*         0x00000000007fcbec       0x14 
 .bss           0x00000000007fcc00     0xa8a0 misc_f77/misc_f77.o
 .bss           0x00000000008074a0      0xfe0 fncs.o
 .bss           0x0000000000808480        0x0 s_iter.o
 .bss           0x0000000000808480        0x0 DV_gui/DV_forms.o
 .bss           0x0000000000808480      0x3c0 DV_gui/DV_gui.o
                0x00000000008084c0                diff_reg
                0x00000000008085c0                diff_mask_reg
                0x00000000008086c0                diff_new_reg
                0x00000000008087c0                curr_gl_canvas_obj
                0x00000000008087c8                grid_dl_s
                0x00000000008087d8                bbox_dl_s
                0x00000000008087e8                os_cmap_image_s
                0x00000000008087f8                db_g
                0x0000000000808800                ret_arg
                0x0000000000808804                auto_refresh
                0x0000000000808808                db_open
                0x000000000080880c                db_screen_dump
                0x0000000000808810                gl_pos
                0x0000000000808814                gl_canvas_open
                0x000000000080881c                is_set_cm_min
                0x0000000000808820                is_set_cm_max
                0x0000000000808824                num_particle_f
                0x0000000000808828                db_i0
                0x000000000080882c                db_j0
 .bss           0x0000000000808840        0x0 vis/send_bbh_xyz.o
 .bss           0x0000000000808840        0x0 rnpl_diff/1d/updates_f1.o
 .bss           0x0000000000808840        0x0 rnpl_diff/2d/updates_f2.o
 .bss           0x0000000000808840        0x0 rnpl_diff/3d/updates_f3.o
 .bss           0x0000000000808840        0x0 vis/send_accept_sdf.o
 .bss           0x0000000000808840       0x60 vis/send_gl_canvas.o
                0x0000000000808840                grid_dl
                0x0000000000808848                bbox_dl
                0x0000000000808850                os_cmap_bcol
                0x0000000000808868                os_cmap_image
                0x0000000000808870                capture_dir
                0x0000000000808878                capture_file_name_fs
                0x0000000000808880                key_frames
                0x0000000000808888                n_dl
                0x000000000080888c                dl_view_offset
                0x0000000000808890                show_os_cmap
                0x0000000000808894                capture_on
                0x0000000000808898                capture_n
 .bss           0x00000000008088a0       0x20 misc_f77/2Dclusterer.o
 .bss           0x00000000008088c0     0xbbc0 misc_f77/dc_clusterer.o
 .bss           0x0000000000814480        0x0 vis/scr_save.o
 .bss           0x0000000000814480        0x0 null_int.o
 .bss           0x0000000000814480        0x0 geod_int.o
 .bss           0x0000000000814480        0x0 DV_calc/DV_calc.tab.o
 .bss           0x0000000000814480       0x58 DV_calc/lex.DV_calc.o
                0x00000000008144a8                DV_calcin
                0x00000000008144b0                DV_calcout
                0x00000000008144cc                DV_calc_flex_debug
 .bss           0x00000000008144d8       0x48 DV_calc/parse.o
                0x00000000008144d8                stmnt_list
                0x00000000008144e0                DV_calc_input
                0x00000000008144e8                DV_calc_input_ptr
                0x00000000008144f0                DV_calc_mask
                0x00000000008144f8                DV_calc_filter
                0x0000000000814500                DV_calc_arg
                0x0000000000814508                DV_calc_mask_val
                0x0000000000814514                DV_calc_debug_mode
                0x0000000000814518                eval_error_state
 .bss           0x0000000000814520       0xa0 /usr/local/intel/lib/libbbhutil.a(bbhutil.o)
                0x00000000008145b0                Gpar_pr
                0x00000000008145b8                Gpar_prsize
 .bss           0x00000000008145c0       0x20 /usr/local/intel/lib/libbbhutil.a(cliser.o)
 .bss           0x00000000008145e0      0x220 /usr/local/intel/lib/libbbhutil.a(sdf.o)
 .bss           0x0000000000814800        0x0 /usr/local/intel/lib/libbbhutil.a(gpar.tab.o)
 .bss           0x0000000000814800       0x58 /usr/local/intel/lib/libbbhutil.a(lex.gpar.o)
                0x0000000000814830                gparin
                0x0000000000814838                gparout
                0x0000000000814850                gpar_flex_debug
 *fill*         0x0000000000814858        0x8 
 .bss           0x0000000000814860     0x1b00 /usr/local/intel/lib/libutilio.a(ctoirang.o)
 .bss           0x0000000000816360        0x0 /usr/local/intel/lib/libutilio.a(utilexplorer_c.o)
 .bss           0x0000000000816360        0x0 /opt/intel/composer_xe_2013.3.163/compiler/lib/intel64/libimf.a(atan2.o)
 .bss           0x0000000000816360        0x0 /opt/intel/composer_xe_2013.3.163/compiler/lib/intel64/libimf.a(atan_stub.o)
 .bss           0x0000000000816360        0x0 /opt/intel/composer_xe_2013.3.163/compiler/lib/intel64/libimf.a(cbrt_stub.o)
 .bss           0x0000000000816360        0x0 /opt/intel/composer_xe_2013.3.163/compiler/lib/intel64/libimf.a(ceilf_stub.o)
 .bss           0x0000000000816360        0x0 /opt/intel/composer_xe_2013.3.163/compiler/lib/intel64/libimf.a(ceil_stub.o)
 .bss           0x0000000000816360        0x0 /opt/intel/composer_xe_2013.3.163/compiler/lib/intel64/libimf.a(cos_stub.o)
 .bss           0x0000000000816360        0x0 /opt/intel/composer_xe_2013.3.163/compiler/lib/intel64/libimf.a(exp2f_stub.o)
 .bss           0x0000000000816360        0x0 /opt/intel/composer_xe_2013.3.163/compiler/lib/intel64/libimf.a(exp_stub.o)
 .bss           0x0000000000816360        0x0 /opt/intel/composer_xe_2013.3.163/compiler/lib/intel64/libimf.a(floorf_stub.o)
 .bss           0x0000000000816360        0x0 /opt/intel/composer_xe_2013.3.163/compiler/lib/intel64/libimf.a(floor_stub.o)
 .bss           0x0000000000816360        0x0 /opt/intel/composer_xe_2013.3.163/compiler/lib/intel64/libimf.a(f__powi4i4.o)
 .bss           0x0000000000816360        0x0 /opt/intel/composer_xe_2013.3.163/compiler/lib/intel64/libimf.a(isfinite.o)
 .bss           0x0000000000816360        0x8 /opt/intel/composer_xe_2013.3.163/compiler/lib/intel64/libimf.a(libm_error.o)
 .bss           0x0000000000816368        0x0 /opt/intel/composer_xe_2013.3.163/compiler/lib/intel64/libimf.a(libm_sse2_sincos.o)
 .bss           0x0000000000816368        0x0 /opt/intel/composer_xe_2013.3.163/compiler/lib/intel64/libimf.a(log10f_stub.o)
 .bss           0x0000000000816368        0x0 /opt/intel/composer_xe_2013.3.163/compiler/lib/intel64/libimf.a(log10_stub.o)
 .bss           0x0000000000816368        0x0 /opt/intel/composer_xe_2013.3.163/compiler/lib/intel64/libimf.a(log_stub.o)
 .bss           0x0000000000816368        0x0 /opt/intel/composer_xe_2013.3.163/compiler/lib/intel64/libimf.a(matherrf.o)
 .bss           0x0000000000816368        0x0 /opt/intel/composer_xe_2013.3.163/compiler/lib/intel64/libimf.a(matherrl.o)
 .bss           0x0000000000816368        0x0 /opt/intel/composer_xe_2013.3.163/compiler/lib/intel64/libimf.a(matherr.o)
 .bss           0x0000000000816368        0x0 /opt/intel/composer_xe_2013.3.163/compiler/lib/intel64/libimf.a(pow_stub.o)
 .bss           0x0000000000816368        0x0 /opt/intel/composer_xe_2013.3.163/compiler/lib/intel64/libimf.a(sincosf_stub.o)
 .bss           0x0000000000816368        0x0 /opt/intel/composer_xe_2013.3.163/compiler/lib/intel64/libimf.a(sincos_stub.o)
 .bss           0x0000000000816368        0x0 /opt/intel/composer_xe_2013.3.163/compiler/lib/intel64/libimf.a(sin_stub.o)
 .bss           0x0000000000816368        0x0 /opt/intel/composer_xe_2013.3.163/compiler/lib/intel64/libimf.a(tan_stub.o)
 .bss           0x0000000000816368        0x0 /opt/intel/composer_xe_2013.3.163/compiler/lib/intel64/libimf.a(atan_ct.o)
 .bss           0x0000000000816368        0x0 /opt/intel/composer_xe_2013.3.163/compiler/lib/intel64/libimf.a(atan_gen.o)
 .bss           0x0000000000816368        0x0 /opt/intel/composer_xe_2013.3.163/compiler/lib/intel64/libimf.a(cbrt_ct.o)
 .bss           0x0000000000816368        0x0 /opt/intel/composer_xe_2013.3.163/compiler/lib/intel64/libimf.a(cbrt_gen.o)
 .bss           0x0000000000816368        0x0 /opt/intel/composer_xe_2013.3.163/compiler/lib/intel64/libimf.a(ceil_ct.o)
 .bss           0x0000000000816368        0x0 /opt/intel/composer_xe_2013.3.163/compiler/lib/intel64/libimf.a(ceilf_ct.o)
 .bss           0x0000000000816368        0x0 /opt/intel/composer_xe_2013.3.163/compiler/lib/intel64/libimf.a(ceilf_gen.o)
 .bss           0x0000000000816368        0x0 /opt/intel/composer_xe_2013.3.163/compiler/lib/intel64/libimf.a(ceilf_pnr.o)
 .bss           0x0000000000816368        0x0 /opt/intel/composer_xe_2013.3.163/compiler/lib/intel64/libimf.a(ceil_gen.o)
 .bss           0x0000000000816368        0x0 /opt/intel/composer_xe_2013.3.163/compiler/lib/intel64/libimf.a(ceil_pnr.o)
 .bss           0x0000000000816368        0x0 /opt/intel/composer_xe_2013.3.163/compiler/lib/intel64/libimf.a(cos_ct.o)
 .bss           0x0000000000816368        0x0 /opt/intel/composer_xe_2013.3.163/compiler/lib/intel64/libimf.a(cos_gen.o)
 .bss           0x0000000000816368        0x0 /opt/intel/composer_xe_2013.3.163/compiler/lib/intel64/libimf.a(cos_pnr.o)
 .bss           0x0000000000816368        0x0 /opt/intel/composer_xe_2013.3.163/compiler/lib/intel64/libimf.a(exp2f_ct.o)
 .bss           0x0000000000816368        0x0 /opt/intel/composer_xe_2013.3.163/compiler/lib/intel64/libimf.a(exp2f_gen.o)
 .bss           0x0000000000816368        0x0 /opt/intel/composer_xe_2013.3.163/compiler/lib/intel64/libimf.a(exp_ct.o)
 .bss           0x0000000000816368        0x0 /opt/intel/composer_xe_2013.3.163/compiler/lib/intel64/libimf.a(expf_table.o)
 .bss           0x0000000000816368        0x0 /opt/intel/composer_xe_2013.3.163/compiler/lib/intel64/libimf.a(exp_gen.o)
 .bss           0x0000000000816368        0x0 /opt/intel/composer_xe_2013.3.163/compiler/lib/intel64/libimf.a(floor_ct.o)
 .bss           0x0000000000816368        0x0 /opt/intel/composer_xe_2013.3.163/compiler/lib/intel64/libimf.a(floorf_ct.o)
 .bss           0x0000000000816368        0x0 /opt/intel/composer_xe_2013.3.163/compiler/lib/intel64/libimf.a(floorf_gen.o)
 .bss           0x0000000000816368        0x0 /opt/intel/composer_xe_2013.3.163/compiler/lib/intel64/libimf.a(floorf_pnr.o)
 .bss           0x0000000000816368        0x0 /opt/intel/composer_xe_2013.3.163/compiler/lib/intel64/libimf.a(floor_gen.o)
 .bss           0x0000000000816368        0x0 /opt/intel/composer_xe_2013.3.163/compiler/lib/intel64/libimf.a(floor_pnr.o)
 .bss           0x0000000000816368        0x0 /opt/intel/composer_xe_2013.3.163/compiler/lib/intel64/libimf.a(libm_reduce_pio2.o)
 .bss           0x0000000000816368        0x0 /opt/intel/composer_xe_2013.3.163/compiler/lib/intel64/libimf.a(log10_ct.o)
 .bss           0x0000000000816368        0x0 /opt/intel/composer_xe_2013.3.163/compiler/lib/intel64/libimf.a(log10f_ct.o)
 .bss           0x0000000000816368        0x0 /opt/intel/composer_xe_2013.3.163/compiler/lib/intel64/libimf.a(log10f_gen.o)
 .bss           0x0000000000816368        0x0 /opt/intel/composer_xe_2013.3.163/compiler/lib/intel64/libimf.a(log10_gen.o)
 .bss           0x0000000000816368        0x0 /opt/intel/composer_xe_2013.3.163/compiler/lib/intel64/libimf.a(log_ct.o)
 .bss           0x0000000000816368        0x0 /opt/intel/composer_xe_2013.3.163/compiler/lib/intel64/libimf.a(logf_table.o)
 .bss           0x0000000000816368        0x0 /opt/intel/composer_xe_2013.3.163/compiler/lib/intel64/libimf.a(log_gen.o)
 .bss           0x0000000000816368        0x0 /opt/intel/composer_xe_2013.3.163/compiler/lib/intel64/libimf.a(pow_ct.o)
 .bss           0x0000000000816368        0x0 /opt/intel/composer_xe_2013.3.163/compiler/lib/intel64/libimf.a(pow_gen.o)
 .bss           0x0000000000816368        0x0 /opt/intel/composer_xe_2013.3.163/compiler/lib/intel64/libimf.a(rcp_table.o)
 .bss           0x0000000000816368        0x0 /opt/intel/composer_xe_2013.3.163/compiler/lib/intel64/libimf.a(sincos_ct.o)
 .bss           0x0000000000816368        0x0 /opt/intel/composer_xe_2013.3.163/compiler/lib/intel64/libimf.a(sincosf_ct.o)
 .bss           0x0000000000816368        0x0 /opt/intel/composer_xe_2013.3.163/compiler/lib/intel64/libimf.a(sincosf_gen.o)
 .bss           0x0000000000816368        0x0 /opt/intel/composer_xe_2013.3.163/compiler/lib/intel64/libimf.a(sincos_gen.o)
 .bss           0x0000000000816368        0x0 /opt/intel/composer_xe_2013.3.163/compiler/lib/intel64/libimf.a(sin_ct.o)
 .bss           0x0000000000816368        0x0 /opt/intel/composer_xe_2013.3.163/compiler/lib/intel64/libimf.a(sin_gen.o)
 .bss           0x0000000000816368        0x0 /opt/intel/composer_xe_2013.3.163/compiler/lib/intel64/libimf.a(sin_pnr.o)
 .bss           0x0000000000816368        0x0 /opt/intel/composer_xe_2013.3.163/compiler/lib/intel64/libimf.a(tan_ct.o)
 .bss           0x0000000000816368        0x0 /opt/intel/composer_xe_2013.3.163/compiler/lib/intel64/libimf.a(tan_gen.o)
 *fill*         0x0000000000816368        0x8 
 .bss           0x0000000000816370       0x20 /d/bh0/home/matt/autoconf/DV/DVCliser//libDVCliser.a(DVCliser.o)
 .bss           0x0000000000816390        0x0 /opt/intel/composer_xe_2013.3.163/compiler/lib/intel64/libimf.a(acosdf.o)
 .bss           0x0000000000816390        0x0 /opt/intel/composer_xe_2013.3.163/compiler/lib/intel64/libimf.a(acosdq_stub.o)
 .bss           0x0000000000816390        0x0 /opt/intel/composer_xe_2013.3.163/compiler/lib/intel64/libimf.a(acosd_stub.o)
 .bss           0x0000000000816390        0x0 /opt/intel/composer_xe_2013.3.163/compiler/lib/intel64/libimf.a(acoshq_stub.o)
 .bss           0x0000000000816390        0x0 /opt/intel/composer_xe_2013.3.163/compiler/lib/intel64/libimf.a(acosq_stub.o)
 .bss           0x0000000000816390        0x0 /opt/intel/composer_xe_2013.3.163/compiler/lib/intel64/libimf.a(asindf.o)
 .bss           0x0000000000816390        0x0 /opt/intel/composer_xe_2013.3.163/compiler/lib/intel64/libimf.a(asindq_stub.o)
 .bss           0x0000000000816390        0x0 /opt/intel/composer_xe_2013.3.163/compiler/lib/intel64/libimf.a(asind_stub.o)
 .bss           0x0000000000816390        0x0 /opt/intel/composer_xe_2013.3.163/compiler/lib/intel64/libimf.a(asinhq_stub.o)
 .bss           0x0000000000816390        0x0 /opt/intel/composer_xe_2013.3.163/compiler/lib/intel64/libimf.a(asinq_stub.o)
 .bss           0x0000000000816390        0x0 /opt/intel/composer_xe_2013.3.163/compiler/lib/intel64/libimf.a(atan2dq_stub.o)
 .bss           0x0000000000816390        0x0 /opt/intel/composer_xe_2013.3.163/compiler/lib/intel64/libimf.a(atan2q_stub.o)
 .bss           0x0000000000816390        0x0 /opt/intel/composer_xe_2013.3.163/compiler/lib/intel64/libimf.a(atandf.o)
 .bss           0x0000000000816390        0x0 /opt/intel/composer_xe_2013.3.163/compiler/lib/intel64/libimf.a(atand.o)
 .bss           0x0000000000816390        0x0 /opt/intel/composer_xe_2013.3.163/compiler/lib/intel64/libimf.a(atandq_stub.o)
 .bss           0x0000000000816390        0x0 /opt/intel/composer_xe_2013.3.163/compiler/lib/intel64/libimf.a(atanhq_stub.o)
 .bss           0x0000000000816390        0x0 /opt/intel/composer_xe_2013.3.163/compiler/lib/intel64/libimf.a(atanq_stub.o)
 .bss           0x0000000000816390        0x0 /opt/intel/composer_xe_2013.3.163/compiler/lib/intel64/libimf.a(cabsq.o)
 .bss           0x0000000000816390        0x0 /opt/intel/composer_xe_2013.3.163/compiler/lib/intel64/libimf.a(cbrtq_stub.o)
 .bss           0x0000000000816390        0x0 /opt/intel/composer_xe_2013.3.163/compiler/lib/intel64/libimf.a(ccoshq.o)
 .bss           0x0000000000816390        0x0 /opt/intel/composer_xe_2013.3.163/compiler/lib/intel64/libimf.a(ccosq.o)
 .bss           0x0000000000816390        0x0 /opt/intel/composer_xe_2013.3.163/compiler/lib/intel64/libimf.a(ceilq.o)
 .bss           0x0000000000816390        0x0 /opt/intel/composer_xe_2013.3.163/compiler/lib/intel64/libimf.a(cexp10f.o)
 .bss           0x0000000000816390        0x0 /opt/intel/composer_xe_2013.3.163/compiler/lib/intel64/libimf.a(cexp10.o)
 .bss           0x0000000000816390        0x0 /opt/intel/composer_xe_2013.3.163/compiler/lib/intel64/libimf.a(cexp10q.o)
 .bss           0x0000000000816390        0x0 /opt/intel/composer_xe_2013.3.163/compiler/lib/intel64/libimf.a(cexpq.o)
 .bss           0x0000000000816390        0x0 /opt/intel/composer_xe_2013.3.163/compiler/lib/intel64/libimf.a(clog10q.o)
 .bss           0x0000000000816390        0x0 /opt/intel/composer_xe_2013.3.163/compiler/lib/intel64/libimf.a(clogq.o)
 .bss           0x0000000000816390        0x0 /opt/intel/composer_xe_2013.3.163/compiler/lib/intel64/libimf.a(const_q_table.o)
 .bss           0x0000000000816390        0x0 /opt/intel/composer_xe_2013.3.163/compiler/lib/intel64/libimf.a(cosdf_stub.o)
 .bss           0x0000000000816390        0x0 /opt/intel/composer_xe_2013.3.163/compiler/lib/intel64/libimf.a(cosdq_stub.o)
 .bss           0x0000000000816390        0x0 /opt/intel/composer_xe_2013.3.163/compiler/lib/intel64/libimf.a(cosd_stub.o)
 .bss           0x0000000000816390        0x0 /opt/intel/composer_xe_2013.3.163/compiler/lib/intel64/libimf.a(coshq_stub.o)
 .bss           0x0000000000816390        0x0 /opt/intel/composer_xe_2013.3.163/compiler/lib/intel64/libimf.a(cosq_stub.o)
 .bss           0x0000000000816390        0x0 /opt/intel/composer_xe_2013.3.163/compiler/lib/intel64/libimf.a(cotdf_stub.o)
 .bss           0x0000000000816390        0x0 /opt/intel/composer_xe_2013.3.163/compiler/lib/intel64/libimf.a(cotdq_stub.o)
 .bss           0x0000000000816390        0x0 /opt/intel/composer_xe_2013.3.163/compiler/lib/intel64/libimf.a(cotd_stub.o)
 .bss           0x0000000000816390        0x0 /opt/intel/composer_xe_2013.3.163/compiler/lib/intel64/libimf.a(cotf.o)
 .bss           0x0000000000816390        0x0 /opt/intel/composer_xe_2013.3.163/compiler/lib/intel64/libimf.a(cot.o)
 .bss           0x0000000000816390        0x0 /opt/intel/composer_xe_2013.3.163/compiler/lib/intel64/libimf.a(cotq_stub.o)
 .bss           0x0000000000816390        0x0 /opt/intel/composer_xe_2013.3.163/compiler/lib/intel64/libimf.a(cpowq.o)
 .bss           0x0000000000816390        0x0 /opt/intel/composer_xe_2013.3.163/compiler/lib/intel64/libimf.a(csinhq.o)
 .bss           0x0000000000816390        0x0 /opt/intel/composer_xe_2013.3.163/compiler/lib/intel64/libimf.a(csinq.o)
 .bss           0x0000000000816390        0x0 /opt/intel/composer_xe_2013.3.163/compiler/lib/intel64/libimf.a(csqrtq.o)
 .bss           0x0000000000816390        0x0 /opt/intel/composer_xe_2013.3.163/compiler/lib/intel64/libimf.a(ctanhq.o)
 .bss           0x0000000000816390        0x0 /opt/intel/composer_xe_2013.3.163/compiler/lib/intel64/libimf.a(ctanq.o)
 .bss           0x0000000000816390        0x0 /opt/intel/composer_xe_2013.3.163/compiler/lib/intel64/libimf.a(dpml_ux_bessel.o)
 .bss           0x0000000000816390        0x0 /opt/intel/composer_xe_2013.3.163/compiler/lib/intel64/libimf.a(dpml_ux_erf.o)
 .bss           0x0000000000816390        0x0 /opt/intel/composer_xe_2013.3.163/compiler/lib/intel64/libimf.a(dpml_ux_exp.o)
 .bss           0x0000000000816390        0x0 /opt/intel/composer_xe_2013.3.163/compiler/lib/intel64/libimf.a(dpml_ux_int.o)
 .bss           0x0000000000816390        0x0 /opt/intel/composer_xe_2013.3.163/compiler/lib/intel64/libimf.a(dpml_ux_lgamma.o)
 .bss           0x0000000000816390        0x0 /opt/intel/composer_xe_2013.3.163/compiler/lib/intel64/libimf.a(dpml_ux_log.o)
 .bss           0x0000000000816390        0x0 /opt/intel/composer_xe_2013.3.163/compiler/lib/intel64/libimf.a(dpml_ux_mod.o)
 .bss           0x0000000000816390        0x0 /opt/intel/composer_xe_2013.3.163/compiler/lib/intel64/libimf.a(dpml_ux_ops_64.o)
 .bss           0x0000000000816390        0x0 /opt/intel/composer_xe_2013.3.163/compiler/lib/intel64/libimf.a(dpml_ux_ops.o)
 .bss           0x0000000000816390        0x0 /opt/intel/composer_xe_2013.3.163/compiler/lib/intel64/libimf.a(dpml_ux_powi.o)
 .bss           0x0000000000816390        0x0 /opt/intel/composer_xe_2013.3.163/compiler/lib/intel64/libimf.a(dpml_ux_sqrt.o)
 .bss           0x0000000000816390        0x0 /opt/intel/composer_xe_2013.3.163/compiler/lib/intel64/libimf.a(dpml_ux_trig.o)
 .bss           0x0000000000816390        0x0 /opt/intel/composer_xe_2013.3.163/compiler/lib/intel64/libimf.a(exp10q_stub.o)
 .bss           0x0000000000816390        0x0 /opt/intel/composer_xe_2013.3.163/compiler/lib/intel64/libimf.a(exp2q_stub.o)
 .bss           0x0000000000816390        0x0 /opt/intel/composer_xe_2013.3.163/compiler/lib/intel64/libimf.a(expq_stub.o)
 .bss           0x0000000000816390        0x0 /opt/intel/composer_xe_2013.3.163/compiler/lib/intel64/libimf.a(fabsq.o)
 .bss           0x0000000000816390        0x0 /opt/intel/composer_xe_2013.3.163/compiler/lib/intel64/libimf.a(floorq.o)
 .bss           0x0000000000816390        0x0 /opt/intel/composer_xe_2013.3.163/compiler/lib/intel64/libimf.a(frexpq.o)
 .bss           0x0000000000816390        0x0 /opt/intel/composer_xe_2013.3.163/compiler/lib/intel64/libimf.a(hypotq_stub.o)
 .bss           0x0000000000816390        0x0 /opt/intel/composer_xe_2013.3.163/compiler/lib/intel64/libimf.a(intel_quad_exception.o)
 .bss           0x0000000000816390        0x0 /opt/intel/composer_xe_2013.3.163/compiler/lib/intel64/libimf.a(ldexpq.o)
 .bss           0x0000000000816390        0x0 /opt/intel/composer_xe_2013.3.163/compiler/lib/intel64/libimf.a(libm128_error.o)
 .bss           0x0000000000816390        0x0 /opt/intel/composer_xe_2013.3.163/compiler/lib/intel64/libimf.a(libm_exp10_k64.o)
 .bss           0x0000000000816390        0x0 /opt/intel/composer_xe_2013.3.163/compiler/lib/intel64/libimf.a(libm_mul_k64.o)
 .bss           0x0000000000816390        0x0 /opt/intel/composer_xe_2013.3.163/compiler/lib/intel64/libimf.a(libm_sincosln10_k64.o)
 .bss           0x0000000000816390        0x0 /opt/intel/composer_xe_2013.3.163/compiler/lib/intel64/libimf.a(log10q_stub.o)
 .bss           0x0000000000816390        0x0 /opt/intel/composer_xe_2013.3.163/compiler/lib/intel64/libimf.a(log2q_stub.o)
 .bss           0x0000000000816390        0x0 /opt/intel/composer_xe_2013.3.163/compiler/lib/intel64/libimf.a(logq_stub.o)
 .bss           0x0000000000816390        0x0 /opt/intel/composer_xe_2013.3.163/compiler/lib/intel64/libimf.a(nextafterq.o)
 .bss           0x0000000000816390        0x0 /opt/intel/composer_xe_2013.3.163/compiler/lib/intel64/libimf.a(powq_stub.o)
 .bss           0x0000000000816390        0x0 /opt/intel/composer_xe_2013.3.163/compiler/lib/intel64/libimf.a(rintq.o)
 .bss           0x0000000000816390        0x0 /opt/intel/composer_xe_2013.3.163/compiler/lib/intel64/libimf.a(scalbnq.o)
 .bss           0x0000000000816390        0x0 /opt/intel/composer_xe_2013.3.163/compiler/lib/intel64/libimf.a(sindf_stub.o)
 .bss           0x0000000000816390        0x0 /opt/intel/composer_xe_2013.3.163/compiler/lib/intel64/libimf.a(sindq_stub.o)
 .bss           0x0000000000816390        0x0 /opt/intel/composer_xe_2013.3.163/compiler/lib/intel64/libimf.a(sind_stub.o)
 .bss           0x0000000000816390        0x0 /opt/intel/composer_xe_2013.3.163/compiler/lib/intel64/libimf.a(sinhq_stub.o)
 .bss           0x0000000000816390        0x0 /opt/intel/composer_xe_2013.3.163/compiler/lib/intel64/libimf.a(sinq_stub.o)
 .bss           0x0000000000816390        0x0 /opt/intel/composer_xe_2013.3.163/compiler/lib/intel64/libimf.a(sqrt_tab_t.o)
 .bss           0x0000000000816390        0x0 /opt/intel/composer_xe_2013.3.163/compiler/lib/intel64/libimf.a(tandf_stub.o)
 .bss           0x0000000000816390        0x0 /opt/intel/composer_xe_2013.3.163/compiler/lib/intel64/libimf.a(tandq_stub.o)
 .bss           0x0000000000816390        0x0 /opt/intel/composer_xe_2013.3.163/compiler/lib/intel64/libimf.a(tand_stub.o)
 .bss           0x0000000000816390        0x0 /opt/intel/composer_xe_2013.3.163/compiler/lib/intel64/libimf.a(tanhq_stub.o)
 .bss           0x0000000000816390        0x0 /opt/intel/composer_xe_2013.3.163/compiler/lib/intel64/libimf.a(tanq_stub.o)
 .bss           0x0000000000816390        0x0 /opt/intel/composer_xe_2013.3.163/compiler/lib/intel64/libimf.a(trig_pi_bits.o)
 .bss           0x0000000000816390        0x0 /opt/intel/composer_xe_2013.3.163/compiler/lib/intel64/libimf.a(truncq.o)
 .bss           0x0000000000816390        0x0 /opt/intel/composer_xe_2013.3.163/compiler/lib/intel64/libimf.a(acosd_ct.o)
 .bss           0x0000000000816390        0x0 /opt/intel/composer_xe_2013.3.163/compiler/lib/intel64/libimf.a(acosd_gen.o)
 .bss           0x0000000000816390        0x0 /opt/intel/composer_xe_2013.3.163/compiler/lib/intel64/libimf.a(acosdq_ct.o)
 .bss           0x0000000000816390        0x0 /opt/intel/composer_xe_2013.3.163/compiler/lib/intel64/libimf.a(acosdq_gen.o)
 .bss           0x0000000000816390        0x0 /opt/intel/composer_xe_2013.3.163/compiler/lib/intel64/libimf.a(acoshq_ct.o)
 .bss           0x0000000000816390        0x0 /opt/intel/composer_xe_2013.3.163/compiler/lib/intel64/libimf.a(acoshq_gen.o)
 .bss           0x0000000000816390        0x0 /opt/intel/composer_xe_2013.3.163/compiler/lib/intel64/libimf.a(acosq_ct.o)
 .bss           0x0000000000816390        0x0 /opt/intel/composer_xe_2013.3.163/compiler/lib/intel64/libimf.a(acosq_gen.o)
 .bss           0x0000000000816390        0x0 /opt/intel/composer_xe_2013.3.163/compiler/lib/intel64/libimf.a(asind_ct.o)
 .bss           0x0000000000816390        0x0 /opt/intel/composer_xe_2013.3.163/compiler/lib/intel64/libimf.a(asind_gen.o)
 .bss           0x0000000000816390        0x0 /opt/intel/composer_xe_2013.3.163/compiler/lib/intel64/libimf.a(asindq_ct.o)
 .bss           0x0000000000816390        0x0 /opt/intel/composer_xe_2013.3.163/compiler/lib/intel64/libimf.a(asindq_gen.o)
 .bss           0x0000000000816390        0x0 /opt/intel/composer_xe_2013.3.163/compiler/lib/intel64/libimf.a(asinhq_ct.o)
 .bss           0x0000000000816390        0x0 /opt/intel/composer_xe_2013.3.163/compiler/lib/intel64/libimf.a(asinhq_gen.o)
 .bss           0x0000000000816390        0x0 /opt/intel/composer_xe_2013.3.163/compiler/lib/intel64/libimf.a(asinq_ct.o)
 .bss           0x0000000000816390        0x0 /opt/intel/composer_xe_2013.3.163/compiler/lib/intel64/libimf.a(asinq_gen.o)
 .bss           0x0000000000816390        0x0 /opt/intel/composer_xe_2013.3.163/compiler/lib/intel64/libimf.a(atan2dq_ct.o)
 .bss           0x0000000000816390        0x0 /opt/intel/composer_xe_2013.3.163/compiler/lib/intel64/libimf.a(atan2dq_gen.o)
 .bss           0x0000000000816390        0x0 /opt/intel/composer_xe_2013.3.163/compiler/lib/intel64/libimf.a(atan2q_ct.o)
 .bss           0x0000000000816390        0x0 /opt/intel/composer_xe_2013.3.163/compiler/lib/intel64/libimf.a(atan2q_gen.o)
 .bss           0x0000000000816390        0x0 /opt/intel/composer_xe_2013.3.163/compiler/lib/intel64/libimf.a(atandq_ct.o)
 .bss           0x0000000000816390        0x0 /opt/intel/composer_xe_2013.3.163/compiler/lib/intel64/libimf.a(atandq_gen.o)
 .bss           0x0000000000816390        0x0 /opt/intel/composer_xe_2013.3.163/compiler/lib/intel64/libimf.a(atanhq_ct.o)
 .bss           0x0000000000816390        0x0 /opt/intel/composer_xe_2013.3.163/compiler/lib/intel64/libimf.a(atanhq_gen.o)
 .bss           0x0000000000816390        0x0 /opt/intel/composer_xe_2013.3.163/compiler/lib/intel64/libimf.a(atanq_ct.o)
 .bss           0x0000000000816390        0x0 /opt/intel/composer_xe_2013.3.163/compiler/lib/intel64/libimf.a(atanq_gen.o)
 .bss           0x0000000000816390        0x0 /opt/intel/composer_xe_2013.3.163/compiler/lib/intel64/libimf.a(atanq_table.o)
 .bss           0x0000000000816390        0x0 /opt/intel/composer_xe_2013.3.163/compiler/lib/intel64/libimf.a(cbrtq_ct.o)
 .bss           0x0000000000816390        0x0 /opt/intel/composer_xe_2013.3.163/compiler/lib/intel64/libimf.a(cbrtq_gen.o)
 .bss           0x0000000000816390        0x0 /opt/intel/composer_xe_2013.3.163/compiler/lib/intel64/libimf.a(copysignq.o)
 .bss           0x0000000000816390        0x0 /opt/intel/composer_xe_2013.3.163/compiler/lib/intel64/libimf.a(cosd_ct.o)
 .bss           0x0000000000816390        0x0 /opt/intel/composer_xe_2013.3.163/compiler/lib/intel64/libimf.a(cosdf_ct.o)
 .bss           0x0000000000816390        0x0 /opt/intel/composer_xe_2013.3.163/compiler/lib/intel64/libimf.a(cosdf_gen.o)
 .bss           0x0000000000816390        0x0 /opt/intel/composer_xe_2013.3.163/compiler/lib/intel64/libimf.a(cosd_gen.o)
 .bss           0x0000000000816390        0x0 /opt/intel/composer_xe_2013.3.163/compiler/lib/intel64/libimf.a(cosdq_ct.o)
 .bss           0x0000000000816390        0x0 /opt/intel/composer_xe_2013.3.163/compiler/lib/intel64/libimf.a(cosdq_gen.o)
 .bss           0x0000000000816390        0x0 /opt/intel/composer_xe_2013.3.163/compiler/lib/intel64/libimf.a(coshq_ct.o)
 .bss           0x0000000000816390        0x0 /opt/intel/composer_xe_2013.3.163/compiler/lib/intel64/libimf.a(coshq_gen.o)
 .bss           0x0000000000816390        0x0 /opt/intel/composer_xe_2013.3.163/compiler/lib/intel64/libimf.a(cosq_ct.o)
 .bss           0x0000000000816390        0x0 /opt/intel/composer_xe_2013.3.163/compiler/lib/intel64/libimf.a(cosq_gen.o)
 .bss           0x0000000000816390        0x0 /opt/intel/composer_xe_2013.3.163/compiler/lib/intel64/libimf.a(cotd_ct.o)
 .bss           0x0000000000816390        0x0 /opt/intel/composer_xe_2013.3.163/compiler/lib/intel64/libimf.a(cotdf_ct.o)
 .bss           0x0000000000816390        0x0 /opt/intel/composer_xe_2013.3.163/compiler/lib/intel64/libimf.a(cotdf_gen.o)
 .bss           0x0000000000816390        0x0 /opt/intel/composer_xe_2013.3.163/compiler/lib/intel64/libimf.a(cotd_gen.o)
 .bss           0x0000000000816390        0x0 /opt/intel/composer_xe_2013.3.163/compiler/lib/intel64/libimf.a(cotdq_ct.o)
 .bss           0x0000000000816390        0x0 /opt/intel/composer_xe_2013.3.163/compiler/lib/intel64/libimf.a(cotdq_gen.o)
 .bss           0x0000000000816390        0x0 /opt/intel/composer_xe_2013.3.163/compiler/lib/intel64/libimf.a(cotq_ct.o)
 .bss           0x0000000000816390        0x0 /opt/intel/composer_xe_2013.3.163/compiler/lib/intel64/libimf.a(cotq_gen.o)
 .bss           0x0000000000816390        0x0 /opt/intel/composer_xe_2013.3.163/compiler/lib/intel64/libimf.a(exp10q_ct.o)
 .bss           0x0000000000816390        0x0 /opt/intel/composer_xe_2013.3.163/compiler/lib/intel64/libimf.a(exp10q_gen.o)
 .bss           0x0000000000816390        0x0 /opt/intel/composer_xe_2013.3.163/compiler/lib/intel64/libimf.a(exp2q_ct.o)
 .bss           0x0000000000816390        0x0 /opt/intel/composer_xe_2013.3.163/compiler/lib/intel64/libimf.a(exp2q_gen.o)
 .bss           0x0000000000816390        0x0 /opt/intel/composer_xe_2013.3.163/compiler/lib/intel64/libimf.a(expq_ct.o)
 .bss           0x0000000000816390        0x0 /opt/intel/composer_xe_2013.3.163/compiler/lib/intel64/libimf.a(expq_gen.o)
 .bss           0x0000000000816390        0x0 /opt/intel/composer_xe_2013.3.163/compiler/lib/intel64/libimf.a(expq_tm1z_table.o)
 .bss           0x0000000000816390        0x0 /opt/intel/composer_xe_2013.3.163/compiler/lib/intel64/libimf.a(expq_tz_table.o)
 .bss           0x0000000000816390        0x0 /opt/intel/composer_xe_2013.3.163/compiler/lib/intel64/libimf.a(exp_table.o)
 .bss           0x0000000000816390        0x0 /opt/intel/composer_xe_2013.3.163/compiler/lib/intel64/libimf.a(hypotq_ct.o)
 .bss           0x0000000000816390        0x0 /opt/intel/composer_xe_2013.3.163/compiler/lib/intel64/libimf.a(hypotq_gen.o)
 .bss           0x0000000000816390        0x0 /opt/intel/composer_xe_2013.3.163/compiler/lib/intel64/libimf.a(libm128_basics.o)
 .bss           0x0000000000816390        0x0 /opt/intel/composer_xe_2013.3.163/compiler/lib/intel64/libimf.a(libm128_l_ops.o)
 .bss           0x0000000000816390        0x0 /opt/intel/composer_xe_2013.3.163/compiler/lib/intel64/libimf.a(libm128_reduce_pi04q.o)
 .bss           0x0000000000816390        0x0 /opt/intel/composer_xe_2013.3.163/compiler/lib/intel64/libimf.a(libm128_x_ops.o)
 .bss           0x0000000000816390        0x0 /opt/intel/composer_xe_2013.3.163/compiler/lib/intel64/libimf.a(libm_reduce_pio2ln10.o)
 .bss           0x0000000000816390        0x0 /opt/intel/composer_xe_2013.3.163/compiler/lib/intel64/libimf.a(log10q_ct.o)
 .bss           0x0000000000816390        0x0 /opt/intel/composer_xe_2013.3.163/compiler/lib/intel64/libimf.a(log10q_gen.o)
 .bss           0x0000000000816390        0x0 /opt/intel/composer_xe_2013.3.163/compiler/lib/intel64/libimf.a(log2q_ct.o)
 .bss           0x0000000000816390        0x0 /opt/intel/composer_xe_2013.3.163/compiler/lib/intel64/libimf.a(log2q_gen.o)
 .bss           0x0000000000816390        0x0 /opt/intel/composer_xe_2013.3.163/compiler/lib/intel64/libimf.a(logq_ct.o)
 .bss           0x0000000000816390        0x0 /opt/intel/composer_xe_2013.3.163/compiler/lib/intel64/libimf.a(logq_gen.o)
 .bss           0x0000000000816390        0x0 /opt/intel/composer_xe_2013.3.163/compiler/lib/intel64/libimf.a(logq_hl2z_table.o)
 .bss           0x0000000000816390        0x0 /opt/intel/composer_xe_2013.3.163/compiler/lib/intel64/libimf.a(logq_hlgz_table.o)
 .bss           0x0000000000816390        0x0 /opt/intel/composer_xe_2013.3.163/compiler/lib/intel64/libimf.a(logq_hlnz_table.o)
 .bss           0x0000000000816390        0x0 /opt/intel/composer_xe_2013.3.163/compiler/lib/intel64/libimf.a(logq_zg_table.o)
 .bss           0x0000000000816390        0x0 /opt/intel/composer_xe_2013.3.163/compiler/lib/intel64/libimf.a(powq_ct.o)
 .bss           0x0000000000816390        0x0 /opt/intel/composer_xe_2013.3.163/compiler/lib/intel64/libimf.a(powq_gen.o)
 .bss           0x0000000000816390        0x0 /opt/intel/composer_xe_2013.3.163/compiler/lib/intel64/libimf.a(rcpq_table.o)
 .bss           0x0000000000816390        0x0 /opt/intel/composer_xe_2013.3.163/compiler/lib/intel64/libimf.a(roundq.o)
 .bss           0x0000000000816390        0x0 /opt/intel/composer_xe_2013.3.163/compiler/lib/intel64/libimf.a(scaleq_table.o)
 .bss           0x0000000000816390        0x0 /opt/intel/composer_xe_2013.3.163/compiler/lib/intel64/libimf.a(sincosdq_table.o)
 .bss           0x0000000000816390        0x0 /opt/intel/composer_xe_2013.3.163/compiler/lib/intel64/libimf.a(sincosd_table.o)
 .bss           0x0000000000816390        0x0 /opt/intel/composer_xe_2013.3.163/compiler/lib/intel64/libimf.a(sincosq_table.o)
 .bss           0x0000000000816390        0x0 /opt/intel/composer_xe_2013.3.163/compiler/lib/intel64/libimf.a(sind_ct.o)
 .bss           0x0000000000816390        0x0 /opt/intel/composer_xe_2013.3.163/compiler/lib/intel64/libimf.a(sindf_ct.o)
 .bss           0x0000000000816390        0x0 /opt/intel/composer_xe_2013.3.163/compiler/lib/intel64/libimf.a(sindf_gen.o)
 .bss           0x0000000000816390        0x0 /opt/intel/composer_xe_2013.3.163/compiler/lib/intel64/libimf.a(sind_gen.o)
 .bss           0x0000000000816390        0x0 /opt/intel/composer_xe_2013.3.163/compiler/lib/intel64/libimf.a(sindq_ct.o)
 .bss           0x0000000000816390        0x0 /opt/intel/composer_xe_2013.3.163/compiler/lib/intel64/libimf.a(sindq_gen.o)
 .bss           0x0000000000816390        0x0 /opt/intel/composer_xe_2013.3.163/compiler/lib/intel64/libimf.a(sinhq_ct.o)
 .bss           0x0000000000816390        0x0 /opt/intel/composer_xe_2013.3.163/compiler/lib/intel64/libimf.a(sinhq_gen.o)
 .bss           0x0000000000816390        0x0 /opt/intel/composer_xe_2013.3.163/compiler/lib/intel64/libimf.a(sinq_ct.o)
 .bss           0x0000000000816390        0x0 /opt/intel/composer_xe_2013.3.163/compiler/lib/intel64/libimf.a(sinq_gen.o)
 .bss           0x0000000000816390        0x0 /opt/intel/composer_xe_2013.3.163/compiler/lib/intel64/libimf.a(tancotdq_table.o)
 .bss           0x0000000000816390        0x0 /opt/intel/composer_xe_2013.3.163/compiler/lib/intel64/libimf.a(tand_ct.o)
 .bss           0x0000000000816390        0x0 /opt/intel/composer_xe_2013.3.163/compiler/lib/intel64/libimf.a(tandf_ct.o)
 .bss           0x0000000000816390        0x0 /opt/intel/composer_xe_2013.3.163/compiler/lib/intel64/libimf.a(tandf_gen.o)
 .bss           0x0000000000816390        0x0 /opt/intel/composer_xe_2013.3.163/compiler/lib/intel64/libimf.a(tand_gen.o)
 .bss           0x0000000000816390        0x0 /opt/intel/composer_xe_2013.3.163/compiler/lib/intel64/libimf.a(tandq_ct.o)
 .bss           0x0000000000816390        0x0 /opt/intel/composer_xe_2013.3.163/compiler/lib/intel64/libimf.a(tandq_gen.o)
 .bss           0x0000000000816390        0x0 /opt/intel/composer_xe_2013.3.163/compiler/lib/intel64/libimf.a(tanhq_ct.o)
 .bss           0x0000000000816390        0x0 /opt/intel/composer_xe_2013.3.163/compiler/lib/intel64/libimf.a(tanhq_gen.o)
 .bss           0x0000000000816390        0x0 /opt/intel/composer_xe_2013.3.163/compiler/lib/intel64/libimf.a(tanq_ct.o)
 .bss           0x0000000000816390        0x0 /opt/intel/composer_xe_2013.3.163/compiler/lib/intel64/libimf.a(tanq_gen.o)
 .bss           0x0000000000816390        0x0 /opt/intel/composer_xe_2013.3.163/compiler/lib/intel64/libimf.a(expq_table.o)
 .bss           0x0000000000816390        0x0 /opt/intel/composer_xe_2013.3.163/compiler/lib/intel64/libimf.a(invsqrtl.o)
 .bss           0x0000000000816390        0x0 /opt/intel/composer_xe_2013.3.163/compiler/lib/intel64/libimf.a(libm128_y_ops.o)
 .bss           0x0000000000816390        0x0 /opt/intel/composer_xe_2013.3.163/compiler/lib/intel64/libimf.a(logq_table.o)
 .bss           0x0000000000816390        0x0 /opt/intel/composer_xe_2013.3.163/compiler/lib/intel64/libirc.a(ints2q.o)
 .bss           0x0000000000816390        0x0 /opt/intel/composer_xe_2013.3.163/compiler/lib/intel64/libirc.a(negq.o)
 .bss           0x0000000000816390        0x0 /opt/intel/composer_xe_2013.3.163/compiler/lib/intel64/libirc.a(qcomp.o)
 .bss           0x0000000000816390        0x0 /opt/intel/composer_xe_2013.3.163/compiler/lib/intel64/libirc.a(q2ints.o)
 .bss           0x0000000000816390        0x0 /opt/intel/composer_xe_2013.3.163/compiler/lib/intel64/libirc.a(fp2q.o)
 .bss           0x0000000000816390        0x0 /opt/intel/composer_xe_2013.3.163/compiler/lib/intel64/libirc.a(q2fp.o)
 .bss           0x0000000000816390        0x0 /opt/intel/composer_xe_2013.3.163/compiler/lib/intel64/libirc.a(w_addq.o)
 .bss           0x0000000000816390        0x0 /opt/intel/composer_xe_2013.3.163/compiler/lib/intel64/libirc.a(w_geq.o)
 .bss           0x0000000000816390        0x0 /opt/intel/composer_xe_2013.3.163/compiler/lib/intel64/libirc.a(w_leq.o)
 .bss           0x0000000000816390        0x0 /opt/intel/composer_xe_2013.3.163/compiler/lib/intel64/libirc.a(w_mulq.o)
 .bss           0x0000000000816390        0x0 /opt/intel/composer_xe_2013.3.163/compiler/lib/intel64/libirc.a(w_subq.o)
 .bss           0x0000000000816390        0x0 /opt/intel/composer_xe_2013.3.163/compiler/lib/intel64/libirc.a(w_caddq.o)
 .bss           0x0000000000816390        0x0 /opt/intel/composer_xe_2013.3.163/compiler/lib/intel64/libirc.a(w_cmulq.o)
 .bss           0x0000000000816390        0x0 /opt/intel/composer_xe_2013.3.163/compiler/lib/intel64/libirc.a(w_csubq.o)
 .bss           0x0000000000816390        0x0 /opt/intel/composer_xe_2013.3.163/compiler/lib/intel64/libirc.a(tbk_display.o)
 *fill*         0x0000000000816390       0x10 
 .bss           0x00000000008163a0      0x160 /opt/intel/composer_xe_2013.3.163/compiler/lib/intel64/libirc.a(tbk_backtrace.o)
                0x0000000000816420                tbk__jmp_env
 .bss           0x0000000000816500        0x0 /opt/intel/composer_xe_2013.3.163/compiler/lib/intel64/libirc.a(ia32_memcmp.o)
 .bss           0x0000000000816500        0x4 /opt/intel/composer_xe_2013.3.163/compiler/lib/intel64/libirc.a(cpu_disp.o)
                0x0000000000816500                __intel_cpu_indicator
 *fill*         0x0000000000816504        0x4 
 .bss           0x0000000000816508       0x10 /opt/intel/composer_xe_2013.3.163/compiler/lib/intel64/libirc.a(cpu_feature_dispx.o)
                0x0000000000816508                __intel_cpu_feature_indicator_x
                0x0000000000816510                __intel_cpu_fms_indicator_x
 .bss           0x0000000000816518        0x0 /opt/intel/composer_xe_2013.3.163/compiler/lib/intel64/libirc.a(fastmemcpy.o)
 .bss           0x0000000000816518        0x0 /opt/intel/composer_xe_2013.3.163/compiler/lib/intel64/libirc.a(fastmemset.o)
 .bss           0x0000000000816518        0x0 /opt/intel/composer_xe_2013.3.163/compiler/lib/intel64/libirc.a(proc_init.o)
 .bss           0x0000000000816518        0x0 /opt/intel/composer_xe_2013.3.163/compiler/lib/intel64/libirc.a(proc_init_utils.o)
 .bss           0x0000000000816518        0x0 /opt/intel/composer_xe_2013.3.163/compiler/lib/intel64/libirc.a(ia32_addsubq.o)
 .bss           0x0000000000816518        0x0 /opt/intel/composer_xe_2013.3.163/compiler/lib/intel64/libirc.a(ia32_mulq.o)
 .bss           0x0000000000816518        0x0 /opt/intel/composer_xe_2013.3.163/compiler/lib/intel64/libirc.a(ia32_divq.o)
 .bss           0x0000000000816518        0x0 /opt/intel/composer_xe_2013.3.163/compiler/lib/intel64/libirc.a(sse2_strcspn.o)
 .bss           0x0000000000816518        0x8 /opt/intel/composer_xe_2013.3.163/compiler/lib/intel64/libirc.a(sse2_strtok.o)
 .bss           0x0000000000816520        0x0 /opt/intel/composer_xe_2013.3.163/compiler/lib/intel64/libirc.a(sse2_strcpy.o)
 .bss           0x0000000000816520        0x0 /opt/intel/composer_xe_2013.3.163/compiler/lib/intel64/libirc.a(sse2_strncpy.o)
 .bss           0x0000000000816520        0x0 /opt/intel/composer_xe_2013.3.163/compiler/lib/intel64/libirc.a(sse2_strlen.o)
 .bss           0x0000000000816520        0x0 /opt/intel/composer_xe_2013.3.163/compiler/lib/intel64/libirc.a(sse2_strchr.o)
 .bss           0x0000000000816520        0x0 /opt/intel/composer_xe_2013.3.163/compiler/lib/intel64/libirc.a(sse2_strncmp.o)
 .bss           0x0000000000816520        0x0 /opt/intel/composer_xe_2013.3.163/compiler/lib/intel64/libirc.a(sse2_strcat.o)
 .bss           0x0000000000816520        0x0 /opt/intel/composer_xe_2013.3.163/compiler/lib/intel64/libirc.a(sse2_strncat.o)
 .bss           0x0000000000816520        0x0 /opt/intel/composer_xe_2013.3.163/compiler/lib/intel64/libirc.a(sse2_strdup.o)
 .bss           0x0000000000816520        0x0 /opt/intel/composer_xe_2013.3.163/compiler/lib/intel64/libirc.a(fast_memcpy_pp.o)
 .bss           0x0000000000816520        0x0 /opt/intel/composer_xe_2013.3.163/compiler/lib/intel64/libirc.a(fast_memset_pp.o)
 .bss           0x0000000000816520        0x0 /opt/intel/composer_xe_2013.3.163/compiler/lib/intel64/libirc.a(intel_ssse3_memcpy.o)
 .bss           0x0000000000816520        0x0 /opt/intel/composer_xe_2013.3.163/compiler/lib/intel64/libirc.a(intel_ssse3_rep_memcpy.o)
 .bss           0x0000000000816520      0x420 /opt/intel/composer_xe_2013.3.163/compiler/lib/intel64/libirc.a(irc_msg_support.o)
 .bss           0x0000000000816940       0x60 /opt/intel/composer_xe_2013.3.163/compiler/lib/intel64/libirc.a(fast_mem_ops.o)
                0x0000000000816984                __libirc_mem_ops_method
                0x0000000000816988                __libirc_largest_cachelinesize
 .bss           0x00000000008169a0        0x0 /usr/lib64/libc_nonshared.a(elf-init.oS)
 .bss           0x00000000008169a0        0x0 /usr/lib64/libc_nonshared.a(stat.oS)
 .bss           0x00000000008169a0        0x0 /usr/lib/gcc/x86_64-mageia-linux-gnu/4.8.2/crtend.o
 .bss           0x00000000008169a0        0x0 /usr/lib/gcc/x86_64-mageia-linux-gnu/4.8.2/../../../../lib64/crtn.o
 *(COMMON)
 COMMON         0x00000000008169a0        0xc DV.o
                0x00000000008169a0                stop_dv_service
                0x00000000008169a4                DV_PORT
                0x00000000008169a8                refresh_GUI_now
 *fill*         0x00000000008169ac        0x4 
 COMMON         0x00000000008169b0       0x28 reg.o
                0x00000000008169b0                reg_list
                0x00000000008169b8                reg_list_lock
 *fill*         0x00000000008169d8        0x8 
 COMMON         0x00000000008169e0      0xfbc DV_gui/DV_gui.o
                0x00000000008169e0                model_mat_save
                0x0000000000816a60                prev_os_x1_s
                0x0000000000816a80                def_AB_etc
                0x0000000000816ac0                prev_os_cmap_type_s
                0x0000000000816ae0                last_model_mat_s
                0x0000000000816be0                os_cmap_bcol_s
                0x0000000000816c10                os_cmap_p2_s
                0x0000000000816c40                os_cmap_size_y_s
                0x0000000000816c48                os_cmap_bwidth_s
                0x0000000000816c60                cam_opts_s
                0x0000000000816e40                fd_DV_func_window
                0x0000000000816e48                fd_DV_gl_canvas_window
                0x0000000000816e60                backup_entry
                0x0000000000817198                prev_os_bcol_s
                0x00000000008171c8                fd_DV_annotation_window
                0x00000000008171d0                fd_DV_mstest_userfdef_window
                0x00000000008171e0                userf_table
                0x0000000000817508                fd_DV_sl_opts_window
                0x0000000000817510                os_cmap_image_first_s
                0x0000000000817518                fd_DV_mstest_item1_window
                0x0000000000817520                model_mat_save_s
                0x0000000000817620                os_cmap_p1_s
                0x0000000000817650                prev_os_cmap_scheme_s
                0x0000000000817658                prev_canvas_w
                0x0000000000817660                os_cmap_size_x_s
                0x0000000000817668                fd_DV_main_window
                0x0000000000817670                fd_DV_hvs_window
                0x0000000000817680                rend_opts_s
                0x0000000000817750                n_dl_s
                0x0000000000817758                prev_os_y1_s
                0x0000000000817768                fd_DV_diff_window
                0x0000000000817770                fd_DV_capture_window
                0x0000000000817778                fd_DV_dbrowser_window
                0x0000000000817780                fd_DV_f_select_window
                0x00000000008177a0                gc_opts_s
                0x0000000000817980                prev_os_bwidth_s
                0x0000000000817988                prev_canvas_h
                0x0000000000817990                show_os_cmap_s
                0x0000000000817998                userf_mode
 *fill*         0x000000000081799c        0x4 
 COMMON         0x00000000008179a0        0x8 rnpl_diff/1d/updates_f1.o
                0x00000000008179a0                com_glob_float_
 COMMON         0x00000000008179a8        0x0 rnpl_diff/2d/updates_f2.o
 *fill*         0x00000000008179a8       0x18 
 COMMON         0x00000000008179c0      0x400 rnpl_diff/3d/updates_f3.o
                0x00000000008179c0                com_glob_int_
                0x0000000000817ac0                com_glob_char_
 COMMON         0x0000000000817dc0    0x96de0 vis/send_gl_canvas.o
                0x0000000000817dc0                norm_c3
                0x0000000000847dd8                prev_os_bwidth
                0x0000000000847de0                prev_os_y1
                0x0000000000847de8                os_cmap_size_x
                0x0000000000847e00                norm_c2
                0x0000000000877e18                prev_os_x1
                0x0000000000877e20                rend_opts
                0x0000000000877ea0                cmap_lu_g
                0x0000000000879ea0                last_model_mat
                0x0000000000879f20                os_cmap_size_y
                0x0000000000879f40                norm_c1
                0x00000000008a9f60                cmap_lu_b
                0x00000000008abf60                cmap_lu_r
                0x00000000008adf60                prev_os_cmap_scheme
                0x00000000008adf64                prev_os_cmap_type
                0x00000000008adf80                gc_opts
                0x00000000008ae080                cam_opts
                0x00000000008ae170                prev_os_bcol
                0x00000000008ae1a0                os_text_list
 COMMON         0x00000000008aeba0       0x20 DV_calc/DV_calc.tab.o
                0x00000000008aeba0                pte_2
                0x00000000008aeba8                pte_1
                0x00000000008aebb0                DV_calclval
                0x00000000008aebb8                DV_calcnerrs
                0x00000000008aebbc                DV_calcchar
 COMMON         0x00000000008aebc0       0x10 DV_calc/lex.DV_calc.o
                0x00000000008aebc0                DV_calcleng
                0x00000000008aebc8                DV_calctext
 *fill*         0x00000000008aebd0       0x10 
 COMMON         0x00000000008aebe0      0x140 DV_calc/parse.o
                0x00000000008aebe0                sym_var_val
                0x00000000008aec80                sym_var_name
 COMMON         0x00000000008aed20       0x88 /usr/local/intel/lib/libbbhutil.a(gpar.tab.o)
                0x00000000008aed20                gparchar
                0x00000000008aed24                gparnerrs
                0x00000000008aed28                sg_param_ptr
                0x00000000008aed30                first_tok
                0x00000000008aed34                inputerror
                0x00000000008aed38                sg_param_type
                0x00000000008aed40                sg_param_buf
                0x00000000008aed48                sg_param_end
                0x00000000008aed50                myasgn
                0x00000000008aed78                gotit
                0x00000000008aed80                gparlval
 COMMON         0x00000000008aeda8       0x10 /usr/local/intel/lib/libbbhutil.a(lex.gpar.o)
                0x00000000008aeda8                gpartext
                0x00000000008aedb0                gparleng
 COMMON         0x00000000008aedb8        0xc /opt/intel/composer_xe_2013.3.163/compiler/lib/intel64/libimf.a(dpml_ux_lgamma.o)
                0x00000000008aedb8                signgamq
                0x00000000008aedc0                __signgamq
                0x00000000008aedc8                . = ALIGN ((. != 0x0)?0x8:0x1)
 *fill*         0x00000000008aedc4        0x4 

.lbss
 *(.dynlbss)
 *(.lbss .lbss.* .gnu.linkonce.lb.*)
 *(LARGE_COMMON)
                0x00000000008aedc8                . = ALIGN (0x8)
                0x00000000008aedc8                . = SEGMENT_START ("ldata-segment", .)

.lrodata
 *(.lrodata .lrodata.* .gnu.linkonce.lr.*)

.ldata          0x0000000000caedc8        0x0
 *(.ldata .ldata.* .gnu.linkonce.l.*)
                0x0000000000caedc8                . = ALIGN ((. != 0x0)?0x8:0x1)
                0x0000000000caedc8                . = ALIGN (0x8)
                0x0000000000caedc8                _end = .
                0x0000000000caedc8                PROVIDE (end, .)
                0x0000000000caedc8                . = DATA_SEGMENT_END (.)

.stab
 *(.stab)

.stabstr
 *(.stabstr)

.stab.excl
 *(.stab.excl)

.stab.exclstr
 *(.stab.exclstr)

.stab.index
 *(.stab.index)

.stab.indexstr
 *(.stab.indexstr)

.comment        0x0000000000000000     0x4098
 *(.comment)
 .comment       0x0000000000000000       0x11 /usr/lib/gcc/x86_64-mageia-linux-gnu/4.8.2/../../../../lib64/crt1.o
                                         0x12 (size before relaxing)
 .comment       0x0000000000000000       0x12 /usr/lib/gcc/x86_64-mageia-linux-gnu/4.8.2/crtbegin.o
 .comment       0x0000000000000011       0x40 DV.o
 .comment       0x0000000000000051       0x2d reg.o
 .comment       0x000000000000007e       0x2d misc.o
 .comment       0x00000000000000ab       0x2d instr.o
 .comment       0x00000000000000d8       0x56 misc_f77/misc_f77.o
 .comment       0x000000000000012e       0x56 fncs.o
 .comment       0x0000000000000184       0x2d s_iter.o
 .comment       0x00000000000001b1       0x2d DV_gui/DV_forms.o
 .comment       0x00000000000001de       0x2d DV_gui/DV_gui.o
 .comment       0x000000000000020b       0x2d vis/send_bbh_xyz.o
 .comment       0x0000000000000238       0x2d rnpl_diff/1d/updates_f1.o
 .comment       0x0000000000000265       0x2d rnpl_diff/2d/updates_f2.o
 .comment       0x0000000000000292       0x2d rnpl_diff/3d/updates_f3.o
 .comment       0x00000000000002bf       0x2d vis/send_accept_sdf.o
 .comment       0x00000000000002ec       0x56 vis/send_gl_canvas.o
 .comment       0x0000000000000342       0x2d misc_f77/2Dclusterer.o
 .comment       0x000000000000036f       0x2d misc_f77/dc_clusterer.o
 .comment       0x000000000000039c       0x2d vis/scr_save.o
 .comment       0x00000000000003c9       0x2d null_int.o
 .comment       0x00000000000003f6       0x56 geod_int.o
 .comment       0x000000000000044c       0x2d DV_calc/DV_calc.tab.o
 .comment       0x0000000000000479       0x2d DV_calc/lex.DV_calc.o
 .comment       0x00000000000004a6       0x2d DV_calc/parse.o
 .comment       0x00000000000004d3       0x2d /usr/local/intel/lib/libbbhutil.a(bbhutil.o)
 .comment       0x0000000000000500       0x2d /usr/local/intel/lib/libbbhutil.a(cliser.o)
 .comment       0x000000000000052d       0x2d /usr/local/intel/lib/libbbhutil.a(sdf.o)
 .comment       0x000000000000055a       0x2d /usr/local/intel/lib/libbbhutil.a(gpar.tab.o)
 .comment       0x0000000000000587       0x2d /usr/local/intel/lib/libbbhutil.a(lex.gpar.o)
 .comment       0x00000000000005b4       0x2d /usr/local/intel/lib/libutilio.a(ctoirang.o)
 .comment       0x00000000000005e1       0x2d /usr/local/intel/lib/libutilio.a(utilexplorer_c.o)
 .comment       0x000000000000060e       0x2d /opt/intel/composer_xe_2013.3.163/compiler/lib/intel64/libimf.a(atan2.o)
 .comment       0x000000000000063b       0x40 /opt/intel/composer_xe_2013.3.163/compiler/lib/intel64/libimf.a(atan_stub.o)
 .comment       0x000000000000067b       0x40 /opt/intel/composer_xe_2013.3.163/compiler/lib/intel64/libimf.a(cbrt_stub.o)
 .comment       0x00000000000006bb       0x40 /opt/intel/composer_xe_2013.3.163/compiler/lib/intel64/libimf.a(ceilf_stub.o)
 .comment       0x00000000000006fb       0x40 /opt/intel/composer_xe_2013.3.163/compiler/lib/intel64/libimf.a(ceil_stub.o)
 .comment       0x000000000000073b       0x40 /opt/intel/composer_xe_2013.3.163/compiler/lib/intel64/libimf.a(cos_stub.o)
 .comment       0x000000000000077b       0x40 /opt/intel/composer_xe_2013.3.163/compiler/lib/intel64/libimf.a(exp2f_stub.o)
 .comment       0x00000000000007bb       0x40 /opt/intel/composer_xe_2013.3.163/compiler/lib/intel64/libimf.a(exp_stub.o)
 .comment       0x00000000000007fb       0x40 /opt/intel/composer_xe_2013.3.163/compiler/lib/intel64/libimf.a(floorf_stub.o)
 .comment       0x000000000000083b       0x40 /opt/intel/composer_xe_2013.3.163/compiler/lib/intel64/libimf.a(floor_stub.o)
 .comment       0x000000000000087b       0x2d /opt/intel/composer_xe_2013.3.163/compiler/lib/intel64/libimf.a(f__powi4i4.o)
 .comment       0x00000000000008a8       0x2d /opt/intel/composer_xe_2013.3.163/compiler/lib/intel64/libimf.a(isfinite.o)
 .comment       0x00000000000008d5       0x2d /opt/intel/composer_xe_2013.3.163/compiler/lib/intel64/libimf.a(libm_error.o)
 .comment       0x0000000000000902       0x2d /opt/intel/composer_xe_2013.3.163/compiler/lib/intel64/libimf.a(libm_sse2_sincos.o)
 .comment       0x000000000000092f       0x40 /opt/intel/composer_xe_2013.3.163/compiler/lib/intel64/libimf.a(log10f_stub.o)
 .comment       0x000000000000096f       0x40 /opt/intel/composer_xe_2013.3.163/compiler/lib/intel64/libimf.a(log10_stub.o)
 .comment       0x00000000000009af       0x40 /opt/intel/composer_xe_2013.3.163/compiler/lib/intel64/libimf.a(log_stub.o)
 .comment       0x00000000000009ef       0x2d /opt/intel/composer_xe_2013.3.163/compiler/lib/intel64/libimf.a(matherrf.o)
 .comment       0x0000000000000a1c       0x2d /opt/intel/composer_xe_2013.3.163/compiler/lib/intel64/libimf.a(matherrl.o)
 .comment       0x0000000000000a49       0x2d /opt/intel/composer_xe_2013.3.163/compiler/lib/intel64/libimf.a(matherr.o)
 .comment       0x0000000000000a76       0x40 /opt/intel/composer_xe_2013.3.163/compiler/lib/intel64/libimf.a(pow_stub.o)
 .comment       0x0000000000000ab6       0x40 /opt/intel/composer_xe_2013.3.163/compiler/lib/intel64/libimf.a(sincosf_stub.o)
 .comment       0x0000000000000af6       0x40 /opt/intel/composer_xe_2013.3.163/compiler/lib/intel64/libimf.a(sincos_stub.o)
 .comment       0x0000000000000b36       0x40 /opt/intel/composer_xe_2013.3.163/compiler/lib/intel64/libimf.a(sin_stub.o)
 .comment       0x0000000000000b76       0x40 /opt/intel/composer_xe_2013.3.163/compiler/lib/intel64/libimf.a(tan_stub.o)
 .comment       0x0000000000000bb6       0x2d /opt/intel/composer_xe_2013.3.163/compiler/lib/intel64/libimf.a(atan_ct.o)
 .comment       0x0000000000000be3       0x2d /opt/intel/composer_xe_2013.3.163/compiler/lib/intel64/libimf.a(atan_gen.o)
 .comment       0x0000000000000c10       0x2d /opt/intel/composer_xe_2013.3.163/compiler/lib/intel64/libimf.a(cbrt_ct.o)
 .comment       0x0000000000000c3d       0x2d /opt/intel/composer_xe_2013.3.163/compiler/lib/intel64/libimf.a(cbrt_gen.o)
 .comment       0x0000000000000c6a       0x2d /opt/intel/composer_xe_2013.3.163/compiler/lib/intel64/libimf.a(ceil_ct.o)
 .comment       0x0000000000000c97       0x2d /opt/intel/composer_xe_2013.3.163/compiler/lib/intel64/libimf.a(ceilf_ct.o)
 .comment       0x0000000000000cc4       0x2d /opt/intel/composer_xe_2013.3.163/compiler/lib/intel64/libimf.a(ceilf_gen.o)
 .comment       0x0000000000000cf1       0x2d /opt/intel/composer_xe_2013.3.163/compiler/lib/intel64/libimf.a(ceilf_pnr.o)
 .comment       0x0000000000000d1e       0x2d /opt/intel/composer_xe_2013.3.163/compiler/lib/intel64/libimf.a(ceil_gen.o)
 .comment       0x0000000000000d4b       0x2d /opt/intel/composer_xe_2013.3.163/compiler/lib/intel64/libimf.a(ceil_pnr.o)
 .comment       0x0000000000000d78       0x2d /opt/intel/composer_xe_2013.3.163/compiler/lib/intel64/libimf.a(cos_ct.o)
 .comment       0x0000000000000da5       0x2d /opt/intel/composer_xe_2013.3.163/compiler/lib/intel64/libimf.a(cos_gen.o)
 .comment       0x0000000000000dd2       0x2d /opt/intel/composer_xe_2013.3.163/compiler/lib/intel64/libimf.a(cos_pnr.o)
 .comment       0x0000000000000dff       0x2d /opt/intel/composer_xe_2013.3.163/compiler/lib/intel64/libimf.a(exp2f_ct.o)
 .comment       0x0000000000000e2c       0x2d /opt/intel/composer_xe_2013.3.163/compiler/lib/intel64/libimf.a(exp2f_gen.o)
 .comment       0x0000000000000e59       0x2d /opt/intel/composer_xe_2013.3.163/compiler/lib/intel64/libimf.a(exp_ct.o)
 .comment       0x0000000000000e86       0x2d /opt/intel/composer_xe_2013.3.163/compiler/lib/intel64/libimf.a(expf_table.o)
 .comment       0x0000000000000eb3       0x2d /opt/intel/composer_xe_2013.3.163/compiler/lib/intel64/libimf.a(exp_gen.o)
 .comment       0x0000000000000ee0       0x2d /opt/intel/composer_xe_2013.3.163/compiler/lib/intel64/libimf.a(floor_ct.o)
 .comment       0x0000000000000f0d       0x2d /opt/intel/composer_xe_2013.3.163/compiler/lib/intel64/libimf.a(floorf_ct.o)
 .comment       0x0000000000000f3a       0x2d /opt/intel/composer_xe_2013.3.163/compiler/lib/intel64/libimf.a(floorf_gen.o)
 .comment       0x0000000000000f67       0x2d /opt/intel/composer_xe_2013.3.163/compiler/lib/intel64/libimf.a(floorf_pnr.o)
 .comment       0x0000000000000f94       0x2d /opt/intel/composer_xe_2013.3.163/compiler/lib/intel64/libimf.a(floor_gen.o)
 .comment       0x0000000000000fc1       0x2d /opt/intel/composer_xe_2013.3.163/compiler/lib/intel64/libimf.a(floor_pnr.o)
 .comment       0x0000000000000fee       0x2d /opt/intel/composer_xe_2013.3.163/compiler/lib/intel64/libimf.a(libm_reduce_pio2.o)
 .comment       0x000000000000101b       0x2d /opt/intel/composer_xe_2013.3.163/compiler/lib/intel64/libimf.a(log10_ct.o)
 .comment       0x0000000000001048       0x2d /opt/intel/composer_xe_2013.3.163/compiler/lib/intel64/libimf.a(log10f_ct.o)
 .comment       0x0000000000001075       0x2d /opt/intel/composer_xe_2013.3.163/compiler/lib/intel64/libimf.a(log10f_gen.o)
 .comment       0x00000000000010a2       0x2d /opt/intel/composer_xe_2013.3.163/compiler/lib/intel64/libimf.a(log10_gen.o)
 .comment       0x00000000000010cf       0x2d /opt/intel/composer_xe_2013.3.163/compiler/lib/intel64/libimf.a(log_ct.o)
 .comment       0x00000000000010fc       0x2d /opt/intel/composer_xe_2013.3.163/compiler/lib/intel64/libimf.a(logf_table.o)
 .comment       0x0000000000001129       0x2d /opt/intel/composer_xe_2013.3.163/compiler/lib/intel64/libimf.a(log_gen.o)
 .comment       0x0000000000001156       0x2d /opt/intel/composer_xe_2013.3.163/compiler/lib/intel64/libimf.a(pow_ct.o)
 .comment       0x0000000000001183       0x2d /opt/intel/composer_xe_2013.3.163/compiler/lib/intel64/libimf.a(pow_gen.o)
 .comment       0x00000000000011b0       0x2d /opt/intel/composer_xe_2013.3.163/compiler/lib/intel64/libimf.a(rcp_table.o)
 .comment       0x00000000000011dd       0x2d /opt/intel/composer_xe_2013.3.163/compiler/lib/intel64/libimf.a(sincos_ct.o)
 .comment       0x000000000000120a       0x2d /opt/intel/composer_xe_2013.3.163/compiler/lib/intel64/libimf.a(sincosf_ct.o)
 .comment       0x0000000000001237       0x2d /opt/intel/composer_xe_2013.3.163/compiler/lib/intel64/libimf.a(sincosf_gen.o)
 .comment       0x0000000000001264       0x2d /opt/intel/composer_xe_2013.3.163/compiler/lib/intel64/libimf.a(sincos_gen.o)
 .comment       0x0000000000001291       0x2d /opt/intel/composer_xe_2013.3.163/compiler/lib/intel64/libimf.a(sin_ct.o)
 .comment       0x00000000000012be       0x2d /opt/intel/composer_xe_2013.3.163/compiler/lib/intel64/libimf.a(sin_gen.o)
 .comment       0x00000000000012eb       0x2d /opt/intel/composer_xe_2013.3.163/compiler/lib/intel64/libimf.a(sin_pnr.o)
 .comment       0x0000000000001318       0x2d /opt/intel/composer_xe_2013.3.163/compiler/lib/intel64/libimf.a(tan_ct.o)
 .comment       0x0000000000001345       0x2d /opt/intel/composer_xe_2013.3.163/compiler/lib/intel64/libimf.a(tan_gen.o)
 .comment       0x0000000000001372       0x2d /d/bh0/home/matt/autoconf/DV/DVCliser//libDVCliser.a(DVCliser.o)
 .comment       0x000000000000139f       0x2d /opt/intel/composer_xe_2013.3.163/compiler/lib/intel64/libimf.a(acosdf.o)
 .comment       0x00000000000013cc       0x40 /opt/intel/composer_xe_2013.3.163/compiler/lib/intel64/libimf.a(acosdq_stub.o)
 .comment       0x000000000000140c       0x40 /opt/intel/composer_xe_2013.3.163/compiler/lib/intel64/libimf.a(acosd_stub.o)
 .comment       0x000000000000144c       0x40 /opt/intel/composer_xe_2013.3.163/compiler/lib/intel64/libimf.a(acoshq_stub.o)
 .comment       0x000000000000148c       0x40 /opt/intel/composer_xe_2013.3.163/compiler/lib/intel64/libimf.a(acosq_stub.o)
 .comment       0x00000000000014cc       0x2d /opt/intel/composer_xe_2013.3.163/compiler/lib/intel64/libimf.a(asindf.o)
 .comment       0x00000000000014f9       0x40 /opt/intel/composer_xe_2013.3.163/compiler/lib/intel64/libimf.a(asindq_stub.o)
 .comment       0x0000000000001539       0x40 /opt/intel/composer_xe_2013.3.163/compiler/lib/intel64/libimf.a(asind_stub.o)
 .comment       0x0000000000001579       0x40 /opt/intel/composer_xe_2013.3.163/compiler/lib/intel64/libimf.a(asinhq_stub.o)
 .comment       0x00000000000015b9       0x40 /opt/intel/composer_xe_2013.3.163/compiler/lib/intel64/libimf.a(asinq_stub.o)
 .comment       0x00000000000015f9       0x40 /opt/intel/composer_xe_2013.3.163/compiler/lib/intel64/libimf.a(atan2dq_stub.o)
 .comment       0x0000000000001639       0x40 /opt/intel/composer_xe_2013.3.163/compiler/lib/intel64/libimf.a(atan2q_stub.o)
 .comment       0x0000000000001679       0x2d /opt/intel/composer_xe_2013.3.163/compiler/lib/intel64/libimf.a(atandf.o)
 .comment       0x00000000000016a6       0x2d /opt/intel/composer_xe_2013.3.163/compiler/lib/intel64/libimf.a(atand.o)
 .comment       0x00000000000016d3       0x40 /opt/intel/composer_xe_2013.3.163/compiler/lib/intel64/libimf.a(atandq_stub.o)
 .comment       0x0000000000001713       0x40 /opt/intel/composer_xe_2013.3.163/compiler/lib/intel64/libimf.a(atanhq_stub.o)
 .comment       0x0000000000001753       0x40 /opt/intel/composer_xe_2013.3.163/compiler/lib/intel64/libimf.a(atanq_stub.o)
 .comment       0x0000000000001793       0x2d /opt/intel/composer_xe_2013.3.163/compiler/lib/intel64/libimf.a(cabsq.o)
 .comment       0x00000000000017c0       0x40 /opt/intel/composer_xe_2013.3.163/compiler/lib/intel64/libimf.a(cbrtq_stub.o)
 .comment       0x0000000000001800       0x2d /opt/intel/composer_xe_2013.3.163/compiler/lib/intel64/libimf.a(ccoshq.o)
 .comment       0x000000000000182d       0x2d /opt/intel/composer_xe_2013.3.163/compiler/lib/intel64/libimf.a(ccosq.o)
 .comment       0x000000000000185a       0x2d /opt/intel/composer_xe_2013.3.163/compiler/lib/intel64/libimf.a(ceilq.o)
 .comment       0x0000000000001887       0x2d /opt/intel/composer_xe_2013.3.163/compiler/lib/intel64/libimf.a(cexp10f.o)
 .comment       0x00000000000018b4       0x2d /opt/intel/composer_xe_2013.3.163/compiler/lib/intel64/libimf.a(cexp10.o)
 .comment       0x00000000000018e1       0x2d /opt/intel/composer_xe_2013.3.163/compiler/lib/intel64/libimf.a(cexp10q.o)
 .comment       0x000000000000190e       0x2d /opt/intel/composer_xe_2013.3.163/compiler/lib/intel64/libimf.a(cexpq.o)
 .comment       0x000000000000193b       0x2d /opt/intel/composer_xe_2013.3.163/compiler/lib/intel64/libimf.a(clog10q.o)
 .comment       0x0000000000001968       0x2d /opt/intel/composer_xe_2013.3.163/compiler/lib/intel64/libimf.a(clogq.o)
 .comment       0x0000000000001995       0x2d /opt/intel/composer_xe_2013.3.163/compiler/lib/intel64/libimf.a(const_q_table.o)
 .comment       0x00000000000019c2       0x40 /opt/intel/composer_xe_2013.3.163/compiler/lib/intel64/libimf.a(cosdf_stub.o)
 .comment       0x0000000000001a02       0x40 /opt/intel/composer_xe_2013.3.163/compiler/lib/intel64/libimf.a(cosdq_stub.o)
 .comment       0x0000000000001a42       0x40 /opt/intel/composer_xe_2013.3.163/compiler/lib/intel64/libimf.a(cosd_stub.o)
 .comment       0x0000000000001a82       0x40 /opt/intel/composer_xe_2013.3.163/compiler/lib/intel64/libimf.a(coshq_stub.o)
 .comment       0x0000000000001ac2       0x40 /opt/intel/composer_xe_2013.3.163/compiler/lib/intel64/libimf.a(cosq_stub.o)
 .comment       0x0000000000001b02       0x40 /opt/intel/composer_xe_2013.3.163/compiler/lib/intel64/libimf.a(cotdf_stub.o)
 .comment       0x0000000000001b42       0x40 /opt/intel/composer_xe_2013.3.163/compiler/lib/intel64/libimf.a(cotdq_stub.o)
 .comment       0x0000000000001b82       0x40 /opt/intel/composer_xe_2013.3.163/compiler/lib/intel64/libimf.a(cotd_stub.o)
 .comment       0x0000000000001bc2       0x2d /opt/intel/composer_xe_2013.3.163/compiler/lib/intel64/libimf.a(cotf.o)
 .comment       0x0000000000001bef       0x2d /opt/intel/composer_xe_2013.3.163/compiler/lib/intel64/libimf.a(cot.o)
 .comment       0x0000000000001c1c       0x40 /opt/intel/composer_xe_2013.3.163/compiler/lib/intel64/libimf.a(cotq_stub.o)
 .comment       0x0000000000001c5c       0x2d /opt/intel/composer_xe_2013.3.163/compiler/lib/intel64/libimf.a(cpowq.o)
 .comment       0x0000000000001c89       0x2d /opt/intel/composer_xe_2013.3.163/compiler/lib/intel64/libimf.a(csinhq.o)
 .comment       0x0000000000001cb6       0x2d /opt/intel/composer_xe_2013.3.163/compiler/lib/intel64/libimf.a(csinq.o)
 .comment       0x0000000000001ce3       0x2d /opt/intel/composer_xe_2013.3.163/compiler/lib/intel64/libimf.a(csqrtq.o)
 .comment       0x0000000000001d10       0x2d /opt/intel/composer_xe_2013.3.163/compiler/lib/intel64/libimf.a(ctanhq.o)
 .comment       0x0000000000001d3d       0x2d /opt/intel/composer_xe_2013.3.163/compiler/lib/intel64/libimf.a(ctanq.o)
 .comment       0x0000000000001d6a       0x2d /opt/intel/composer_xe_2013.3.163/compiler/lib/intel64/libimf.a(dpml_ux_bessel.o)
 .comment       0x0000000000001d97       0x2d /opt/intel/composer_xe_2013.3.163/compiler/lib/intel64/libimf.a(dpml_ux_erf.o)
 .comment       0x0000000000001dc4       0x2d /opt/intel/composer_xe_2013.3.163/compiler/lib/intel64/libimf.a(dpml_ux_exp.o)
 .comment       0x0000000000001df1       0x2d /opt/intel/composer_xe_2013.3.163/compiler/lib/intel64/libimf.a(dpml_ux_int.o)
 .comment       0x0000000000001e1e       0x2d /opt/intel/composer_xe_2013.3.163/compiler/lib/intel64/libimf.a(dpml_ux_lgamma.o)
 .comment       0x0000000000001e4b       0x2d /opt/intel/composer_xe_2013.3.163/compiler/lib/intel64/libimf.a(dpml_ux_log.o)
 .comment       0x0000000000001e78       0x2d /opt/intel/composer_xe_2013.3.163/compiler/lib/intel64/libimf.a(dpml_ux_mod.o)
 .comment       0x0000000000001ea5       0x2d /opt/intel/composer_xe_2013.3.163/compiler/lib/intel64/libimf.a(dpml_ux_ops_64.o)
 .comment       0x0000000000001ed2       0x2d /opt/intel/composer_xe_2013.3.163/compiler/lib/intel64/libimf.a(dpml_ux_ops.o)
 .comment       0x0000000000001eff       0x2d /opt/intel/composer_xe_2013.3.163/compiler/lib/intel64/libimf.a(dpml_ux_powi.o)
 .comment       0x0000000000001f2c       0x2d /opt/intel/composer_xe_2013.3.163/compiler/lib/intel64/libimf.a(dpml_ux_sqrt.o)
 .comment       0x0000000000001f59       0x2d /opt/intel/composer_xe_2013.3.163/compiler/lib/intel64/libimf.a(dpml_ux_trig.o)
 .comment       0x0000000000001f86       0x40 /opt/intel/composer_xe_2013.3.163/compiler/lib/intel64/libimf.a(exp10q_stub.o)
 .comment       0x0000000000001fc6       0x40 /opt/intel/composer_xe_2013.3.163/compiler/lib/intel64/libimf.a(exp2q_stub.o)
 .comment       0x0000000000002006       0x40 /opt/intel/composer_xe_2013.3.163/compiler/lib/intel64/libimf.a(expq_stub.o)
 .comment       0x0000000000002046       0x2d /opt/intel/composer_xe_2013.3.163/compiler/lib/intel64/libimf.a(fabsq.o)
 .comment       0x0000000000002073       0x2d /opt/intel/composer_xe_2013.3.163/compiler/lib/intel64/libimf.a(floorq.o)
 .comment       0x00000000000020a0       0x2d /opt/intel/composer_xe_2013.3.163/compiler/lib/intel64/libimf.a(frexpq.o)
 .comment       0x00000000000020cd       0x40 /opt/intel/composer_xe_2013.3.163/compiler/lib/intel64/libimf.a(hypotq_stub.o)
 .comment       0x000000000000210d       0x2d /opt/intel/composer_xe_2013.3.163/compiler/lib/intel64/libimf.a(intel_quad_exception.o)
 .comment       0x000000000000213a       0x2d /opt/intel/composer_xe_2013.3.163/compiler/lib/intel64/libimf.a(ldexpq.o)
 .comment       0x0000000000002167       0x2d /opt/intel/composer_xe_2013.3.163/compiler/lib/intel64/libimf.a(libm128_error.o)
 .comment       0x0000000000002194       0x2d /opt/intel/composer_xe_2013.3.163/compiler/lib/intel64/libimf.a(libm_exp10_k64.o)
 .comment       0x00000000000021c1       0x2d /opt/intel/composer_xe_2013.3.163/compiler/lib/intel64/libimf.a(libm_mul_k64.o)
 .comment       0x00000000000021ee       0x2d /opt/intel/composer_xe_2013.3.163/compiler/lib/intel64/libimf.a(libm_sincosln10_k64.o)
 .comment       0x000000000000221b       0x40 /opt/intel/composer_xe_2013.3.163/compiler/lib/intel64/libimf.a(log10q_stub.o)
 .comment       0x000000000000225b       0x40 /opt/intel/composer_xe_2013.3.163/compiler/lib/intel64/libimf.a(log2q_stub.o)
 .comment       0x000000000000229b       0x40 /opt/intel/composer_xe_2013.3.163/compiler/lib/intel64/libimf.a(logq_stub.o)
 .comment       0x00000000000022db       0x2d /opt/intel/composer_xe_2013.3.163/compiler/lib/intel64/libimf.a(nextafterq.o)
 .comment       0x0000000000002308       0x40 /opt/intel/composer_xe_2013.3.163/compiler/lib/intel64/libimf.a(powq_stub.o)
 .comment       0x0000000000002348       0x2d /opt/intel/composer_xe_2013.3.163/compiler/lib/intel64/libimf.a(rintq.o)
 .comment       0x0000000000002375       0x2d /opt/intel/composer_xe_2013.3.163/compiler/lib/intel64/libimf.a(scalbnq.o)
 .comment       0x00000000000023a2       0x40 /opt/intel/composer_xe_2013.3.163/compiler/lib/intel64/libimf.a(sindf_stub.o)
 .comment       0x00000000000023e2       0x40 /opt/intel/composer_xe_2013.3.163/compiler/lib/intel64/libimf.a(sindq_stub.o)
 .comment       0x0000000000002422       0x40 /opt/intel/composer_xe_2013.3.163/compiler/lib/intel64/libimf.a(sind_stub.o)
 .comment       0x0000000000002462       0x40 /opt/intel/composer_xe_2013.3.163/compiler/lib/intel64/libimf.a(sinhq_stub.o)
 .comment       0x00000000000024a2       0x40 /opt/intel/composer_xe_2013.3.163/compiler/lib/intel64/libimf.a(sinq_stub.o)
 .comment       0x00000000000024e2       0x2d /opt/intel/composer_xe_2013.3.163/compiler/lib/intel64/libimf.a(sqrt_tab_t.o)
 .comment       0x000000000000250f       0x40 /opt/intel/composer_xe_2013.3.163/compiler/lib/intel64/libimf.a(tandf_stub.o)
 .comment       0x000000000000254f       0x40 /opt/intel/composer_xe_2013.3.163/compiler/lib/intel64/libimf.a(tandq_stub.o)
 .comment       0x000000000000258f       0x40 /opt/intel/composer_xe_2013.3.163/compiler/lib/intel64/libimf.a(tand_stub.o)
 .comment       0x00000000000025cf       0x40 /opt/intel/composer_xe_2013.3.163/compiler/lib/intel64/libimf.a(tanhq_stub.o)
 .comment       0x000000000000260f       0x40 /opt/intel/composer_xe_2013.3.163/compiler/lib/intel64/libimf.a(tanq_stub.o)
 .comment       0x000000000000264f       0x2d /opt/intel/composer_xe_2013.3.163/compiler/lib/intel64/libimf.a(trig_pi_bits.o)
 .comment       0x000000000000267c       0x2d /opt/intel/composer_xe_2013.3.163/compiler/lib/intel64/libimf.a(truncq.o)
 .comment       0x00000000000026a9       0x2d /opt/intel/composer_xe_2013.3.163/compiler/lib/intel64/libimf.a(acosd_ct.o)
 .comment       0x00000000000026d6       0x2d /opt/intel/composer_xe_2013.3.163/compiler/lib/intel64/libimf.a(acosd_gen.o)
 .comment       0x0000000000002703       0x2d /opt/intel/composer_xe_2013.3.163/compiler/lib/intel64/libimf.a(acosdq_ct.o)
 .comment       0x0000000000002730       0x2d /opt/intel/composer_xe_2013.3.163/compiler/lib/intel64/libimf.a(acosdq_gen.o)
 .comment       0x000000000000275d       0x2d /opt/intel/composer_xe_2013.3.163/compiler/lib/intel64/libimf.a(acoshq_ct.o)
 .comment       0x000000000000278a       0x2d /opt/intel/composer_xe_2013.3.163/compiler/lib/intel64/libimf.a(acoshq_gen.o)
 .comment       0x00000000000027b7       0x2d /opt/intel/composer_xe_2013.3.163/compiler/lib/intel64/libimf.a(acosq_ct.o)
 .comment       0x00000000000027e4       0x2d /opt/intel/composer_xe_2013.3.163/compiler/lib/intel64/libimf.a(acosq_gen.o)
 .comment       0x0000000000002811       0x2d /opt/intel/composer_xe_2013.3.163/compiler/lib/intel64/libimf.a(asind_ct.o)
 .comment       0x000000000000283e       0x2d /opt/intel/composer_xe_2013.3.163/compiler/lib/intel64/libimf.a(asind_gen.o)
 .comment       0x000000000000286b       0x2d /opt/intel/composer_xe_2013.3.163/compiler/lib/intel64/libimf.a(asindq_ct.o)
 .comment       0x0000000000002898       0x2d /opt/intel/composer_xe_2013.3.163/compiler/lib/intel64/libimf.a(asindq_gen.o)
 .comment       0x00000000000028c5       0x2d /opt/intel/composer_xe_2013.3.163/compiler/lib/intel64/libimf.a(asinhq_ct.o)
 .comment       0x00000000000028f2       0x2d /opt/intel/composer_xe_2013.3.163/compiler/lib/intel64/libimf.a(asinhq_gen.o)
 .comment       0x000000000000291f       0x2d /opt/intel/composer_xe_2013.3.163/compiler/lib/intel64/libimf.a(asinq_ct.o)
 .comment       0x000000000000294c       0x2d /opt/intel/composer_xe_2013.3.163/compiler/lib/intel64/libimf.a(asinq_gen.o)
 .comment       0x0000000000002979       0x2d /opt/intel/composer_xe_2013.3.163/compiler/lib/intel64/libimf.a(atan2dq_ct.o)
 .comment       0x00000000000029a6       0x2d /opt/intel/composer_xe_2013.3.163/compiler/lib/intel64/libimf.a(atan2dq_gen.o)
 .comment       0x00000000000029d3       0x2d /opt/intel/composer_xe_2013.3.163/compiler/lib/intel64/libimf.a(atan2q_ct.o)
 .comment       0x0000000000002a00       0x2d /opt/intel/composer_xe_2013.3.163/compiler/lib/intel64/libimf.a(atan2q_gen.o)
 .comment       0x0000000000002a2d       0x2d /opt/intel/composer_xe_2013.3.163/compiler/lib/intel64/libimf.a(atandq_ct.o)
 .comment       0x0000000000002a5a       0x2d /opt/intel/composer_xe_2013.3.163/compiler/lib/intel64/libimf.a(atandq_gen.o)
 .comment       0x0000000000002a87       0x2d /opt/intel/composer_xe_2013.3.163/compiler/lib/intel64/libimf.a(atanhq_ct.o)
 .comment       0x0000000000002ab4       0x2d /opt/intel/composer_xe_2013.3.163/compiler/lib/intel64/libimf.a(atanhq_gen.o)
 .comment       0x0000000000002ae1       0x2d /opt/intel/composer_xe_2013.3.163/compiler/lib/intel64/libimf.a(atanq_ct.o)
 .comment       0x0000000000002b0e       0x2d /opt/intel/composer_xe_2013.3.163/compiler/lib/intel64/libimf.a(atanq_gen.o)
 .comment       0x0000000000002b3b       0x2d /opt/intel/composer_xe_2013.3.163/compiler/lib/intel64/libimf.a(atanq_table.o)
 .comment       0x0000000000002b68       0x2d /opt/intel/composer_xe_2013.3.163/compiler/lib/intel64/libimf.a(cbrtq_ct.o)
 .comment       0x0000000000002b95       0x2d /opt/intel/composer_xe_2013.3.163/compiler/lib/intel64/libimf.a(cbrtq_gen.o)
 .comment       0x0000000000002bc2       0x2d /opt/intel/composer_xe_2013.3.163/compiler/lib/intel64/libimf.a(copysignq.o)
 .comment       0x0000000000002bef       0x2d /opt/intel/composer_xe_2013.3.163/compiler/lib/intel64/libimf.a(cosd_ct.o)
 .comment       0x0000000000002c1c       0x2d /opt/intel/composer_xe_2013.3.163/compiler/lib/intel64/libimf.a(cosdf_ct.o)
 .comment       0x0000000000002c49       0x2d /opt/intel/composer_xe_2013.3.163/compiler/lib/intel64/libimf.a(cosdf_gen.o)
 .comment       0x0000000000002c76       0x2d /opt/intel/composer_xe_2013.3.163/compiler/lib/intel64/libimf.a(cosd_gen.o)
 .comment       0x0000000000002ca3       0x2d /opt/intel/composer_xe_2013.3.163/compiler/lib/intel64/libimf.a(cosdq_ct.o)
 .comment       0x0000000000002cd0       0x2d /opt/intel/composer_xe_2013.3.163/compiler/lib/intel64/libimf.a(cosdq_gen.o)
 .comment       0x0000000000002cfd       0x2d /opt/intel/composer_xe_2013.3.163/compiler/lib/intel64/libimf.a(coshq_ct.o)
 .comment       0x0000000000002d2a       0x2d /opt/intel/composer_xe_2013.3.163/compiler/lib/intel64/libimf.a(coshq_gen.o)
 .comment       0x0000000000002d57       0x2d /opt/intel/composer_xe_2013.3.163/compiler/lib/intel64/libimf.a(cosq_ct.o)
 .comment       0x0000000000002d84       0x2d /opt/intel/composer_xe_2013.3.163/compiler/lib/intel64/libimf.a(cosq_gen.o)
 .comment       0x0000000000002db1       0x2d /opt/intel/composer_xe_2013.3.163/compiler/lib/intel64/libimf.a(cotd_ct.o)
 .comment       0x0000000000002dde       0x2d /opt/intel/composer_xe_2013.3.163/compiler/lib/intel64/libimf.a(cotdf_ct.o)
 .comment       0x0000000000002e0b       0x2d /opt/intel/composer_xe_2013.3.163/compiler/lib/intel64/libimf.a(cotdf_gen.o)
 .comment       0x0000000000002e38       0x2d /opt/intel/composer_xe_2013.3.163/compiler/lib/intel64/libimf.a(cotd_gen.o)
 .comment       0x0000000000002e65       0x2d /opt/intel/composer_xe_2013.3.163/compiler/lib/intel64/libimf.a(cotdq_ct.o)
 .comment       0x0000000000002e92       0x2d /opt/intel/composer_xe_2013.3.163/compiler/lib/intel64/libimf.a(cotdq_gen.o)
 .comment       0x0000000000002ebf       0x2d /opt/intel/composer_xe_2013.3.163/compiler/lib/intel64/libimf.a(cotq_ct.o)
 .comment       0x0000000000002eec       0x2d /opt/intel/composer_xe_2013.3.163/compiler/lib/intel64/libimf.a(cotq_gen.o)
 .comment       0x0000000000002f19       0x2d /opt/intel/composer_xe_2013.3.163/compiler/lib/intel64/libimf.a(exp10q_ct.o)
 .comment       0x0000000000002f46       0x2d /opt/intel/composer_xe_2013.3.163/compiler/lib/intel64/libimf.a(exp10q_gen.o)
 .comment       0x0000000000002f73       0x2d /opt/intel/composer_xe_2013.3.163/compiler/lib/intel64/libimf.a(exp2q_ct.o)
 .comment       0x0000000000002fa0       0x2d /opt/intel/composer_xe_2013.3.163/compiler/lib/intel64/libimf.a(exp2q_gen.o)
 .comment       0x0000000000002fcd       0x2d /opt/intel/composer_xe_2013.3.163/compiler/lib/intel64/libimf.a(expq_ct.o)
 .comment       0x0000000000002ffa       0x2d /opt/intel/composer_xe_2013.3.163/compiler/lib/intel64/libimf.a(expq_gen.o)
 .comment       0x0000000000003027       0x2d /opt/intel/composer_xe_2013.3.163/compiler/lib/intel64/libimf.a(expq_tm1z_table.o)
 .comment       0x0000000000003054       0x2d /opt/intel/composer_xe_2013.3.163/compiler/lib/intel64/libimf.a(expq_tz_table.o)
 .comment       0x0000000000003081       0x2d /opt/intel/composer_xe_2013.3.163/compiler/lib/intel64/libimf.a(exp_table.o)
 .comment       0x00000000000030ae       0x2d /opt/intel/composer_xe_2013.3.163/compiler/lib/intel64/libimf.a(hypotq_ct.o)
 .comment       0x00000000000030db       0x2d /opt/intel/composer_xe_2013.3.163/compiler/lib/intel64/libimf.a(hypotq_gen.o)
 .comment       0x0000000000003108       0x2d /opt/intel/composer_xe_2013.3.163/compiler/lib/intel64/libimf.a(libm128_basics.o)
 .comment       0x0000000000003135       0x2d /opt/intel/composer_xe_2013.3.163/compiler/lib/intel64/libimf.a(libm128_l_ops.o)
 .comment       0x0000000000003162       0x2d /opt/intel/composer_xe_2013.3.163/compiler/lib/intel64/libimf.a(libm128_reduce_pi04q.o)
 .comment       0x000000000000318f       0x2d /opt/intel/composer_xe_2013.3.163/compiler/lib/intel64/libimf.a(libm128_x_ops.o)
 .comment       0x00000000000031bc       0x2d /opt/intel/composer_xe_2013.3.163/compiler/lib/intel64/libimf.a(libm_reduce_pio2ln10.o)
 .comment       0x00000000000031e9       0x2d /opt/intel/composer_xe_2013.3.163/compiler/lib/intel64/libimf.a(log10q_ct.o)
 .comment       0x0000000000003216       0x2d /opt/intel/composer_xe_2013.3.163/compiler/lib/intel64/libimf.a(log10q_gen.o)
 .comment       0x0000000000003243       0x2d /opt/intel/composer_xe_2013.3.163/compiler/lib/intel64/libimf.a(log2q_ct.o)
 .comment       0x0000000000003270       0x2d /opt/intel/composer_xe_2013.3.163/compiler/lib/intel64/libimf.a(log2q_gen.o)
 .comment       0x000000000000329d       0x2d /opt/intel/composer_xe_2013.3.163/compiler/lib/intel64/libimf.a(logq_ct.o)
 .comment       0x00000000000032ca       0x2d /opt/intel/composer_xe_2013.3.163/compiler/lib/intel64/libimf.a(logq_gen.o)
 .comment       0x00000000000032f7       0x2d /opt/intel/composer_xe_2013.3.163/compiler/lib/intel64/libimf.a(logq_hl2z_table.o)
 .comment       0x0000000000003324       0x2d /opt/intel/composer_xe_2013.3.163/compiler/lib/intel64/libimf.a(logq_hlgz_table.o)
 .comment       0x0000000000003351       0x2d /opt/intel/composer_xe_2013.3.163/compiler/lib/intel64/libimf.a(logq_hlnz_table.o)
 .comment       0x000000000000337e       0x2d /opt/intel/composer_xe_2013.3.163/compiler/lib/intel64/libimf.a(logq_zg_table.o)
 .comment       0x00000000000033ab       0x2d /opt/intel/composer_xe_2013.3.163/compiler/lib/intel64/libimf.a(powq_ct.o)
 .comment       0x00000000000033d8       0x2d /opt/intel/composer_xe_2013.3.163/compiler/lib/intel64/libimf.a(powq_gen.o)
 .comment       0x0000000000003405       0x2d /opt/intel/composer_xe_2013.3.163/compiler/lib/intel64/libimf.a(rcpq_table.o)
 .comment       0x0000000000003432       0x2d /opt/intel/composer_xe_2013.3.163/compiler/lib/intel64/libimf.a(roundq.o)
 .comment       0x000000000000345f       0x2d /opt/intel/composer_xe_2013.3.163/compiler/lib/intel64/libimf.a(scaleq_table.o)
 .comment       0x000000000000348c       0x2d /opt/intel/composer_xe_2013.3.163/compiler/lib/intel64/libimf.a(sincosdq_table.o)
 .comment       0x00000000000034b9       0x2d /opt/intel/composer_xe_2013.3.163/compiler/lib/intel64/libimf.a(sincosd_table.o)
 .comment       0x00000000000034e6       0x2d /opt/intel/composer_xe_2013.3.163/compiler/lib/intel64/libimf.a(sincosq_table.o)
 .comment       0x0000000000003513       0x2d /opt/intel/composer_xe_2013.3.163/compiler/lib/intel64/libimf.a(sind_ct.o)
 .comment       0x0000000000003540       0x2d /opt/intel/composer_xe_2013.3.163/compiler/lib/intel64/libimf.a(sindf_ct.o)
 .comment       0x000000000000356d       0x2d /opt/intel/composer_xe_2013.3.163/compiler/lib/intel64/libimf.a(sindf_gen.o)
 .comment       0x000000000000359a       0x2d /opt/intel/composer_xe_2013.3.163/compiler/lib/intel64/libimf.a(sind_gen.o)
 .comment       0x00000000000035c7       0x2d /opt/intel/composer_xe_2013.3.163/compiler/lib/intel64/libimf.a(sindq_ct.o)
 .comment       0x00000000000035f4       0x2d /opt/intel/composer_xe_2013.3.163/compiler/lib/intel64/libimf.a(sindq_gen.o)
 .comment       0x0000000000003621       0x2d /opt/intel/composer_xe_2013.3.163/compiler/lib/intel64/libimf.a(sinhq_ct.o)
 .comment       0x000000000000364e       0x2d /opt/intel/composer_xe_2013.3.163/compiler/lib/intel64/libimf.a(sinhq_gen.o)
 .comment       0x000000000000367b       0x2d /opt/intel/composer_xe_2013.3.163/compiler/lib/intel64/libimf.a(sinq_ct.o)
 .comment       0x00000000000036a8       0x2d /opt/intel/composer_xe_2013.3.163/compiler/lib/intel64/libimf.a(sinq_gen.o)
 .comment       0x00000000000036d5       0x2d /opt/intel/composer_xe_2013.3.163/compiler/lib/intel64/libimf.a(tancotdq_table.o)
 .comment       0x0000000000003702       0x2d /opt/intel/composer_xe_2013.3.163/compiler/lib/intel64/libimf.a(tand_ct.o)
 .comment       0x000000000000372f       0x2d /opt/intel/composer_xe_2013.3.163/compiler/lib/intel64/libimf.a(tandf_ct.o)
 .comment       0x000000000000375c       0x2d /opt/intel/composer_xe_2013.3.163/compiler/lib/intel64/libimf.a(tandf_gen.o)
 .comment       0x0000000000003789       0x2d /opt/intel/composer_xe_2013.3.163/compiler/lib/intel64/libimf.a(tand_gen.o)
 .comment       0x00000000000037b6       0x2d /opt/intel/composer_xe_2013.3.163/compiler/lib/intel64/libimf.a(tandq_ct.o)
 .comment       0x00000000000037e3       0x2d /opt/intel/composer_xe_2013.3.163/compiler/lib/intel64/libimf.a(tandq_gen.o)
 .comment       0x0000000000003810       0x2d /opt/intel/composer_xe_2013.3.163/compiler/lib/intel64/libimf.a(tanhq_ct.o)
 .comment       0x000000000000383d       0x2d /opt/intel/composer_xe_2013.3.163/compiler/lib/intel64/libimf.a(tanhq_gen.o)
 .comment       0x000000000000386a       0x2d /opt/intel/composer_xe_2013.3.163/compiler/lib/intel64/libimf.a(tanq_ct.o)
 .comment       0x0000000000003897       0x2d /opt/intel/composer_xe_2013.3.163/compiler/lib/intel64/libimf.a(tanq_gen.o)
 .comment       0x00000000000038c4       0x2d /opt/intel/composer_xe_2013.3.163/compiler/lib/intel64/libimf.a(expq_table.o)
 .comment       0x00000000000038f1       0x2d /opt/intel/composer_xe_2013.3.163/compiler/lib/intel64/libimf.a(invsqrtl.o)
 .comment       0x000000000000391e       0x2d /opt/intel/composer_xe_2013.3.163/compiler/lib/intel64/libimf.a(libm128_y_ops.o)
 .comment       0x000000000000394b       0x2d /opt/intel/composer_xe_2013.3.163/compiler/lib/intel64/libimf.a(logq_table.o)
 .comment       0x0000000000003978       0x2d /opt/intel/composer_xe_2013.3.163/compiler/lib/intel64/libirc.a(ints2q.o)
 .comment       0x00000000000039a5       0x2d /opt/intel/composer_xe_2013.3.163/compiler/lib/intel64/libirc.a(negq.o)
 .comment       0x00000000000039d2       0x2d /opt/intel/composer_xe_2013.3.163/compiler/lib/intel64/libirc.a(qcomp.o)
 .comment       0x00000000000039ff       0x2d /opt/intel/composer_xe_2013.3.163/compiler/lib/intel64/libirc.a(q2ints.o)
 .comment       0x0000000000003a2c       0x2d /opt/intel/composer_xe_2013.3.163/compiler/lib/intel64/libirc.a(fp2q.o)
 .comment       0x0000000000003a59       0x2d /opt/intel/composer_xe_2013.3.163/compiler/lib/intel64/libirc.a(q2fp.o)
 .comment       0x0000000000003a86       0x2d /opt/intel/composer_xe_2013.3.163/compiler/lib/intel64/libirc.a(w_addq.o)
 .comment       0x0000000000003ab3       0x2d /opt/intel/composer_xe_2013.3.163/compiler/lib/intel64/libirc.a(w_geq.o)
 .comment       0x0000000000003ae0       0x2d /opt/intel/composer_xe_2013.3.163/compiler/lib/intel64/libirc.a(w_leq.o)
 .comment       0x0000000000003b0d       0x2d /opt/intel/composer_xe_2013.3.163/compiler/lib/intel64/libirc.a(w_mulq.o)
 .comment       0x0000000000003b3a       0x2d /opt/intel/composer_xe_2013.3.163/compiler/lib/intel64/libirc.a(w_subq.o)
 .comment       0x0000000000003b67       0x2d /opt/intel/composer_xe_2013.3.163/compiler/lib/intel64/libirc.a(w_caddq.o)
 .comment       0x0000000000003b94       0x2d /opt/intel/composer_xe_2013.3.163/compiler/lib/intel64/libirc.a(w_cmulq.o)
 .comment       0x0000000000003bc1       0x2d /opt/intel/composer_xe_2013.3.163/compiler/lib/intel64/libirc.a(w_csubq.o)
 .comment       0x0000000000003bee       0x2d /opt/intel/composer_xe_2013.3.163/compiler/lib/intel64/libirc.a(tbk_display.o)
 .comment       0x0000000000003c1b       0x2d /opt/intel/composer_xe_2013.3.163/compiler/lib/intel64/libirc.a(tbk_backtrace.o)
 .comment       0x0000000000003c48       0x2d /opt/intel/composer_xe_2013.3.163/compiler/lib/intel64/libirc.a(ia32_memcmp.o)
 .comment       0x0000000000003c75       0x2d /opt/intel/composer_xe_2013.3.163/compiler/lib/intel64/libirc.a(cpu_disp.o)
 .comment       0x0000000000003ca2       0x2d /opt/intel/composer_xe_2013.3.163/compiler/lib/intel64/libirc.a(cpu_feature_dispx.o)
 .comment       0x0000000000003ccf       0x40 /opt/intel/composer_xe_2013.3.163/compiler/lib/intel64/libirc.a(fastmemcpy.o)
 .comment       0x0000000000003d0f       0x40 /opt/intel/composer_xe_2013.3.163/compiler/lib/intel64/libirc.a(fastmemset.o)
 .comment       0x0000000000003d4f       0x40 /opt/intel/composer_xe_2013.3.163/compiler/lib/intel64/libirc.a(proc_init.o)
 .comment       0x0000000000003d8f       0x2d /opt/intel/composer_xe_2013.3.163/compiler/lib/intel64/libirc.a(proc_init_utils.o)
 .comment       0x0000000000003dbc       0x40 /opt/intel/composer_xe_2013.3.163/compiler/lib/intel64/libirc.a(ia32_addsubq.o)
 .comment       0x0000000000003dfc       0x40 /opt/intel/composer_xe_2013.3.163/compiler/lib/intel64/libirc.a(ia32_mulq.o)
 .comment       0x0000000000003e3c       0x40 /opt/intel/composer_xe_2013.3.163/compiler/lib/intel64/libirc.a(ia32_divq.o)
 .comment       0x0000000000003e7c       0x2d /opt/intel/composer_xe_2013.3.163/compiler/lib/intel64/libirc.a(sse2_strcspn.o)
 .comment       0x0000000000003ea9       0x2d /opt/intel/composer_xe_2013.3.163/compiler/lib/intel64/libirc.a(sse2_strtok.o)
 .comment       0x0000000000003ed6       0x2d /opt/intel/composer_xe_2013.3.163/compiler/lib/intel64/libirc.a(sse2_strcpy.o)
 .comment       0x0000000000003f03       0x2d /opt/intel/composer_xe_2013.3.163/compiler/lib/intel64/libirc.a(sse2_strncpy.o)
 .comment       0x0000000000003f30       0x2d /opt/intel/composer_xe_2013.3.163/compiler/lib/intel64/libirc.a(sse2_strlen.o)
 .comment       0x0000000000003f5d       0x2d /opt/intel/composer_xe_2013.3.163/compiler/lib/intel64/libirc.a(sse2_strchr.o)
 .comment       0x0000000000003f8a       0x2d /opt/intel/composer_xe_2013.3.163/compiler/lib/intel64/libirc.a(sse2_strncmp.o)
 .comment       0x0000000000003fb7       0x2d /opt/intel/composer_xe_2013.3.163/compiler/lib/intel64/libirc.a(sse2_strcat.o)
 .comment       0x0000000000003fe4       0x2d /opt/intel/composer_xe_2013.3.163/compiler/lib/intel64/libirc.a(sse2_strncat.o)
 .comment       0x0000000000004011       0x2d /opt/intel/composer_xe_2013.3.163/compiler/lib/intel64/libirc.a(sse2_strdup.o)
 .comment       0x000000000000403e       0x2d /opt/intel/composer_xe_2013.3.163/compiler/lib/intel64/libirc.a(irc_msg_support.o)
 .comment       0x000000000000406b       0x2d /opt/intel/composer_xe_2013.3.163/compiler/lib/intel64/libirc.a(fast_mem_ops.o)
 .comment       0x0000000000000000       0x12 /usr/lib64/libc_nonshared.a(elf-init.oS)
 .comment       0x0000000000000000       0x12 /usr/lib64/libc_nonshared.a(stat.oS)
 .comment       0x0000000000000000       0x12 /usr/lib/gcc/x86_64-mageia-linux-gnu/4.8.2/crtend.o

.debug
 *(.debug)

.line
 *(.line)

.debug_srcinfo
 *(.debug_srcinfo)

.debug_sfnames
 *(.debug_sfnames)

.debug_aranges  0x0000000000000000      0x130
 *(.debug_aranges)
 .debug_aranges
                0x0000000000000000       0x50 /usr/lib/gcc/x86_64-mageia-linux-gnu/4.8.2/../../../../lib64/crt1.o
 .debug_aranges
                0x0000000000000050       0x40 /usr/lib/gcc/x86_64-mageia-linux-gnu/4.8.2/../../../../lib64/crti.o
 .debug_aranges
                0x0000000000000090       0x30 /usr/lib64/libc_nonshared.a(elf-init.oS)
 .debug_aranges
                0x00000000000000c0       0x30 /usr/lib64/libc_nonshared.a(stat.oS)
 .debug_aranges
                0x00000000000000f0       0x40 /usr/lib/gcc/x86_64-mageia-linux-gnu/4.8.2/../../../../lib64/crtn.o

.debug_pubnames
 *(.debug_pubnames)

.debug_info     0x0000000000000000     0x541c
 *(.debug_info .gnu.linkonce.wi.*)
 .debug_info    0x0000000000000000       0xef /usr/lib/gcc/x86_64-mageia-linux-gnu/4.8.2/../../../../lib64/crt1.o
 .debug_info    0x00000000000000ef       0x64 /usr/lib/gcc/x86_64-mageia-linux-gnu/4.8.2/../../../../lib64/crti.o
 .debug_info    0x0000000000000153     0x4e9c /usr/local/intel/lib/libbbhutil.a(sdf.o)
 .debug_info    0x0000000000004fef      0x158 /usr/lib64/libc_nonshared.a(elf-init.oS)
 .debug_info    0x0000000000005147      0x271 /usr/lib64/libc_nonshared.a(stat.oS)
 .debug_info    0x00000000000053b8       0x64 /usr/lib/gcc/x86_64-mageia-linux-gnu/4.8.2/../../../../lib64/crtn.o

.debug_abbrev   0x0000000000000000      0x455
 *(.debug_abbrev)
 .debug_abbrev  0x0000000000000000       0x52 /usr/lib/gcc/x86_64-mageia-linux-gnu/4.8.2/../../../../lib64/crt1.o
 .debug_abbrev  0x0000000000000052       0x12 /usr/lib/gcc/x86_64-mageia-linux-gnu/4.8.2/../../../../lib64/crti.o
 .debug_abbrev  0x0000000000000064      0x1ed /usr/local/intel/lib/libbbhutil.a(sdf.o)
 .debug_abbrev  0x0000000000000251      0x10d /usr/lib64/libc_nonshared.a(elf-init.oS)
 .debug_abbrev  0x000000000000035e       0xe5 /usr/lib64/libc_nonshared.a(stat.oS)
 .debug_abbrev  0x0000000000000443       0x12 /usr/lib/gcc/x86_64-mageia-linux-gnu/4.8.2/../../../../lib64/crtn.o

.debug_line     0x0000000000000000     0x1248
 *(.debug_line .debug_line.* .debug_line_end)
 .debug_line    0x0000000000000000       0x84 /usr/lib/gcc/x86_64-mageia-linux-gnu/4.8.2/../../../../lib64/crt1.o
 .debug_line    0x0000000000000084       0x64 /usr/lib/gcc/x86_64-mageia-linux-gnu/4.8.2/../../../../lib64/crti.o
 .debug_line    0x00000000000000e8      0xfb8 /usr/local/intel/lib/libbbhutil.a(sdf.o)
 .debug_line    0x00000000000010a0       0xa4 /usr/lib64/libc_nonshared.a(elf-init.oS)
 .debug_line    0x0000000000001144       0xa3 /usr/lib64/libc_nonshared.a(stat.oS)
 .debug_line    0x00000000000011e7       0x61 /usr/lib/gcc/x86_64-mageia-linux-gnu/4.8.2/../../../../lib64/crtn.o

.debug_frame    0x0000000000000000     0x1350
 *(.debug_frame)
 .debug_frame   0x0000000000000000     0x1350 /usr/local/intel/lib/libbbhutil.a(sdf.o)

.debug_str      0x0000000000000000      0xe4f
 *(.debug_str)
 .debug_str     0x0000000000000000      0x123 /usr/lib/gcc/x86_64-mageia-linux-gnu/4.8.2/../../../../lib64/crt1.o
                                        0x148 (size before relaxing)
 .debug_str     0x0000000000000123      0xbee /usr/local/intel/lib/libbbhutil.a(sdf.o)
                                        0xcaa (size before relaxing)
 .debug_str     0x0000000000000d11      0x100 /usr/lib64/libc_nonshared.a(elf-init.oS)
                                        0x15b (size before relaxing)
 .debug_str     0x0000000000000e11       0x3e /usr/lib64/libc_nonshared.a(stat.oS)
                                        0x256 (size before relaxing)

.debug_loc      0x0000000000000000      0x1b3
 *(.debug_loc)
 .debug_loc     0x0000000000000000      0x11b /usr/lib64/libc_nonshared.a(elf-init.oS)
 .debug_loc     0x000000000000011b       0x98 /usr/lib64/libc_nonshared.a(stat.oS)

.debug_macinfo
 *(.debug_macinfo)

.debug_weaknames
 *(.debug_weaknames)

.debug_funcnames
 *(.debug_funcnames)

.debug_typenames
 *(.debug_typenames)

.debug_varnames
 *(.debug_varnames)

.debug_pubtypes
 *(.debug_pubtypes)

.debug_ranges   0x0000000000000000       0xd0
 *(.debug_ranges)
 .debug_ranges  0x0000000000000000       0x40 /usr/lib/gcc/x86_64-mageia-linux-gnu/4.8.2/../../../../lib64/crti.o
 .debug_ranges  0x0000000000000040       0x50 /usr/lib64/libc_nonshared.a(elf-init.oS)
 .debug_ranges  0x0000000000000090       0x40 /usr/lib/gcc/x86_64-mageia-linux-gnu/4.8.2/../../../../lib64/crtn.o

.debug_macro
 *(.debug_macro)

.gnu.attributes
 *(.gnu.attributes)

/DISCARD/
 *(.note.GNU-stack)
 *(.gnu_debuglink)
 *(.gnu.lto_*)
 *(.gnu_object_only)
OUTPUT(DV elf64-x86-64)
